
bitstream.o:     file format elf32-sparc
bitstream.o

Disassembly of section .text:

00000000 <raac_SetBitstreamPointer>:
   0:	9d e3 bf 98 	save  %sp, -104, %sp
   4:	f0 27 a0 44 	st  %i0, [ %fp + 0x44 ]
   8:	f2 27 a0 48 	st  %i1, [ %fp + 0x48 ]
   c:	f4 27 a0 4c 	st  %i2, [ %fp + 0x4c ]
  10:	c4 07 a0 44 	ld  [ %fp + 0x44 ], %g2
  14:	c2 07 a0 4c 	ld  [ %fp + 0x4c ], %g1
  18:	c2 20 80 00 	st  %g1, [ %g2 ]
  1c:	c2 07 a0 44 	ld  [ %fp + 0x44 ], %g1
  20:	c0 20 60 04 	clr  [ %g1 + 4 ]
  24:	c2 07 a0 44 	ld  [ %fp + 0x44 ], %g1
  28:	c0 20 60 08 	clr  [ %g1 + 8 ]
  2c:	c4 07 a0 44 	ld  [ %fp + 0x44 ], %g2
  30:	c2 07 a0 48 	ld  [ %fp + 0x48 ], %g1
  34:	c2 20 a0 0c 	st  %g1, [ %g2 + 0xc ]
  38:	81 c7 e0 08 	ret 
  3c:	81 e8 00 00 	restore 

00000040 <raac_GetBits>:
  40:	9d e3 bf 90 	save  %sp, -112, %sp
  44:	f0 27 a0 44 	st  %i0, [ %fp + 0x44 ]
  48:	f2 27 a0 48 	st  %i1, [ %fp + 0x48 ]
  4c:	c2 07 a0 48 	ld  [ %fp + 0x48 ], %g1
  50:	82 08 60 1f 	and  %g1, 0x1f, %g1
  54:	c2 27 a0 48 	st  %g1, [ %fp + 0x48 ]
  58:	c6 07 a0 44 	ld  [ %fp + 0x44 ], %g3
  5c:	84 10 20 1f 	mov  0x1f, %g2
  60:	c2 07 a0 48 	ld  [ %fp + 0x48 ], %g1
  64:	84 20 80 01 	sub  %g2, %g1, %g2
  68:	c2 00 e0 04 	ld  [ %g3 + 4 ], %g1
  6c:	83 30 40 02 	srl  %g1, %g2, %g1
  70:	c2 27 bf f4 	st  %g1, [ %fp + -12 ]
  74:	c2 07 bf f4 	ld  [ %fp + -12 ], %g1
  78:	83 30 60 01 	srl  %g1, 1, %g1
  7c:	c2 27 bf f4 	st  %g1, [ %fp + -12 ]
  80:	c6 07 a0 44 	ld  [ %fp + 0x44 ], %g3
  84:	c2 07 a0 44 	ld  [ %fp + 0x44 ], %g1
  88:	c4 00 60 04 	ld  [ %g1 + 4 ], %g2
  8c:	c2 07 a0 48 	ld  [ %fp + 0x48 ], %g1
  90:	83 28 80 01 	sll  %g2, %g1, %g1
  94:	c2 20 e0 04 	st  %g1, [ %g3 + 4 ]
  98:	c6 07 a0 44 	ld  [ %fp + 0x44 ], %g3
  9c:	c2 07 a0 44 	ld  [ %fp + 0x44 ], %g1
  a0:	c4 00 60 08 	ld  [ %g1 + 8 ], %g2
  a4:	c2 07 a0 48 	ld  [ %fp + 0x48 ], %g1
  a8:	82 20 80 01 	sub  %g2, %g1, %g1
  ac:	c2 20 e0 08 	st  %g1, [ %g3 + 8 ]
  b0:	c2 07 a0 44 	ld  [ %fp + 0x44 ], %g1
  b4:	c2 00 60 08 	ld  [ %g1 + 8 ], %g1
  b8:	80 a0 60 00 	cmp  %g1, 0
  bc:	16 80 00 1e 	bge  134 <raac_GetBits+0xf4>
  c0:	01 00 00 00 	nop 
  c4:	c2 07 a0 44 	ld  [ %fp + 0x44 ], %g1
  c8:	c2 00 60 08 	ld  [ %g1 + 8 ], %g1
  cc:	82 20 00 01 	neg  %g1
  d0:	c2 27 bf f0 	st  %g1, [ %fp + -16 ]
  d4:	d0 07 a0 44 	ld  [ %fp + 0x44 ], %o0
  d8:	40 00 00 ac 	call  388 <RefillBitstreamCache>
  dc:	01 00 00 00 	nop 
  e0:	c6 07 a0 44 	ld  [ %fp + 0x44 ], %g3
  e4:	84 10 20 20 	mov  0x20, %g2
  e8:	c2 07 bf f0 	ld  [ %fp + -16 ], %g1
  ec:	84 20 80 01 	sub  %g2, %g1, %g2
  f0:	c2 00 e0 04 	ld  [ %g3 + 4 ], %g1
  f4:	85 30 40 02 	srl  %g1, %g2, %g2
  f8:	c2 07 bf f4 	ld  [ %fp + -12 ], %g1
  fc:	82 10 40 02 	or  %g1, %g2, %g1
 100:	c2 27 bf f4 	st  %g1, [ %fp + -12 ]
 104:	c6 07 a0 44 	ld  [ %fp + 0x44 ], %g3
 108:	c2 07 a0 44 	ld  [ %fp + 0x44 ], %g1
 10c:	c4 00 60 08 	ld  [ %g1 + 8 ], %g2
 110:	c2 07 bf f0 	ld  [ %fp + -16 ], %g1
 114:	82 20 80 01 	sub  %g2, %g1, %g1
 118:	c2 20 e0 08 	st  %g1, [ %g3 + 8 ]
 11c:	c6 07 a0 44 	ld  [ %fp + 0x44 ], %g3
 120:	c2 07 a0 44 	ld  [ %fp + 0x44 ], %g1
 124:	c4 00 60 04 	ld  [ %g1 + 4 ], %g2
 128:	c2 07 bf f0 	ld  [ %fp + -16 ], %g1
 12c:	83 28 80 01 	sll  %g2, %g1, %g1
 130:	c2 20 e0 04 	st  %g1, [ %g3 + 4 ]
 134:	c2 07 bf f4 	ld  [ %fp + -12 ], %g1
 138:	b0 10 00 01 	mov  %g1, %i0
 13c:	81 c7 e0 08 	ret 
 140:	81 e8 00 00 	restore 

00000144 <raac_GetBitsNoAdvance>:
 144:	9d e3 bf 88 	save  %sp, -120, %sp
 148:	f0 27 a0 44 	st  %i0, [ %fp + 0x44 ]
 14c:	f2 27 a0 48 	st  %i1, [ %fp + 0x48 ]
 150:	c2 07 a0 48 	ld  [ %fp + 0x48 ], %g1
 154:	82 08 60 1f 	and  %g1, 0x1f, %g1
 158:	c2 27 a0 48 	st  %g1, [ %fp + 0x48 ]
 15c:	c6 07 a0 44 	ld  [ %fp + 0x44 ], %g3
 160:	84 10 20 1f 	mov  0x1f, %g2
 164:	c2 07 a0 48 	ld  [ %fp + 0x48 ], %g1
 168:	84 20 80 01 	sub  %g2, %g1, %g2
 16c:	c2 00 e0 04 	ld  [ %g3 + 4 ], %g1
 170:	83 30 40 02 	srl  %g1, %g2, %g1
 174:	c2 27 bf f0 	st  %g1, [ %fp + -16 ]
 178:	c2 07 bf f0 	ld  [ %fp + -16 ], %g1
 17c:	83 30 60 01 	srl  %g1, 1, %g1
 180:	c2 27 bf f0 	st  %g1, [ %fp + -16 ]
 184:	c2 07 a0 44 	ld  [ %fp + 0x44 ], %g1
 188:	c4 07 a0 48 	ld  [ %fp + 0x48 ], %g2
 18c:	c2 00 60 08 	ld  [ %g1 + 8 ], %g1
 190:	82 20 80 01 	sub  %g2, %g1, %g1
 194:	c2 27 bf e8 	st  %g1, [ %fp + -24 ]
 198:	c2 07 bf e8 	ld  [ %fp + -24 ], %g1
 19c:	80 a0 60 00 	cmp  %g1, 0
 1a0:	04 80 00 30 	ble  260 <raac_GetBitsNoAdvance+0x11c>
 1a4:	01 00 00 00 	nop 
 1a8:	c0 27 bf ec 	clr  [ %fp + -20 ]
 1ac:	c2 07 a0 44 	ld  [ %fp + 0x44 ], %g1
 1b0:	c2 00 40 00 	ld  [ %g1 ], %g1
 1b4:	c2 27 bf f4 	st  %g1, [ %fp + -12 ]
 1b8:	c2 07 bf e8 	ld  [ %fp + -24 ], %g1
 1bc:	80 a0 60 00 	cmp  %g1, 0
 1c0:	14 80 00 04 	bg  1d0 <raac_GetBitsNoAdvance+0x8c>
 1c4:	01 00 00 00 	nop 
 1c8:	10 80 00 1d 	b  23c <raac_GetBitsNoAdvance+0xf8>
 1cc:	01 00 00 00 	nop 
 1d0:	c2 07 bf ec 	ld  [ %fp + -20 ], %g1
 1d4:	83 28 60 08 	sll  %g1, 8, %g1
 1d8:	c2 27 bf ec 	st  %g1, [ %fp + -20 ]
 1dc:	c2 07 a0 44 	ld  [ %fp + 0x44 ], %g1
 1e0:	c4 07 a0 44 	ld  [ %fp + 0x44 ], %g2
 1e4:	c6 00 40 00 	ld  [ %g1 ], %g3
 1e8:	c2 00 a0 0c 	ld  [ %g2 + 0xc ], %g1
 1ec:	84 00 c0 01 	add  %g3, %g1, %g2
 1f0:	c2 07 bf f4 	ld  [ %fp + -12 ], %g1
 1f4:	80 a0 40 02 	cmp  %g1, %g2
 1f8:	1a 80 00 0c 	bcc  228 <raac_GetBitsNoAdvance+0xe4>
 1fc:	01 00 00 00 	nop 
 200:	88 07 bf f4 	add  %fp, -12, %g4
 204:	c4 01 00 00 	ld  [ %g4 ], %g2
 208:	82 10 00 02 	mov  %g2, %g1
 20c:	c2 08 40 00 	ldub  [ %g1 ], %g1
 210:	86 08 60 ff 	and  %g1, 0xff, %g3
 214:	c2 07 bf ec 	ld  [ %fp + -20 ], %g1
 218:	82 10 40 03 	or  %g1, %g3, %g1
 21c:	84 00 a0 01 	inc  %g2
 220:	c4 21 00 00 	st  %g2, [ %g4 ]
 224:	c2 27 bf ec 	st  %g1, [ %fp + -20 ]
 228:	c2 07 bf e8 	ld  [ %fp + -24 ], %g1
 22c:	82 00 7f f8 	add  %g1, -8, %g1
 230:	c2 27 bf e8 	st  %g1, [ %fp + -24 ]
 234:	10 bf ff e1 	b  1b8 <raac_GetBitsNoAdvance+0x74>
 238:	01 00 00 00 	nop 
 23c:	c2 07 bf e8 	ld  [ %fp + -24 ], %g1
 240:	82 20 00 01 	neg  %g1
 244:	c2 27 bf e8 	st  %g1, [ %fp + -24 ]
 248:	c4 07 bf ec 	ld  [ %fp + -20 ], %g2
 24c:	c2 07 bf e8 	ld  [ %fp + -24 ], %g1
 250:	85 30 80 01 	srl  %g2, %g1, %g2
 254:	c2 07 bf f0 	ld  [ %fp + -16 ], %g1
 258:	82 10 40 02 	or  %g1, %g2, %g1
 25c:	c2 27 bf f0 	st  %g1, [ %fp + -16 ]
 260:	c2 07 bf f0 	ld  [ %fp + -16 ], %g1
 264:	b0 10 00 01 	mov  %g1, %i0
 268:	81 c7 e0 08 	ret 
 26c:	81 e8 00 00 	restore 

00000270 <raac_AdvanceBitstream>:
 270:	9d e3 bf 98 	save  %sp, -104, %sp
 274:	f0 27 a0 44 	st  %i0, [ %fp + 0x44 ]
 278:	f2 27 a0 48 	st  %i1, [ %fp + 0x48 ]
 27c:	c2 07 a0 48 	ld  [ %fp + 0x48 ], %g1
 280:	82 08 60 1f 	and  %g1, 0x1f, %g1
 284:	c2 27 a0 48 	st  %g1, [ %fp + 0x48 ]
 288:	c2 07 a0 44 	ld  [ %fp + 0x44 ], %g1
 28c:	c4 07 a0 48 	ld  [ %fp + 0x48 ], %g2
 290:	c2 00 60 08 	ld  [ %g1 + 8 ], %g1
 294:	80 a0 80 01 	cmp  %g2, %g1
 298:	04 80 00 0a 	ble  2c0 <raac_AdvanceBitstream+0x50>
 29c:	01 00 00 00 	nop 
 2a0:	c2 07 a0 44 	ld  [ %fp + 0x44 ], %g1
 2a4:	c4 07 a0 48 	ld  [ %fp + 0x48 ], %g2
 2a8:	c2 00 60 08 	ld  [ %g1 + 8 ], %g1
 2ac:	82 20 80 01 	sub  %g2, %g1, %g1
 2b0:	c2 27 a0 48 	st  %g1, [ %fp + 0x48 ]
 2b4:	d0 07 a0 44 	ld  [ %fp + 0x44 ], %o0
 2b8:	40 00 00 34 	call  388 <RefillBitstreamCache>
 2bc:	01 00 00 00 	nop 
 2c0:	c6 07 a0 44 	ld  [ %fp + 0x44 ], %g3
 2c4:	c2 07 a0 44 	ld  [ %fp + 0x44 ], %g1
 2c8:	c4 00 60 04 	ld  [ %g1 + 4 ], %g2
 2cc:	c2 07 a0 48 	ld  [ %fp + 0x48 ], %g1
 2d0:	83 28 80 01 	sll  %g2, %g1, %g1
 2d4:	c2 20 e0 04 	st  %g1, [ %g3 + 4 ]
 2d8:	c6 07 a0 44 	ld  [ %fp + 0x44 ], %g3
 2dc:	c2 07 a0 44 	ld  [ %fp + 0x44 ], %g1
 2e0:	c4 00 60 08 	ld  [ %g1 + 8 ], %g2
 2e4:	c2 07 a0 48 	ld  [ %fp + 0x48 ], %g1
 2e8:	82 20 80 01 	sub  %g2, %g1, %g1
 2ec:	c2 20 e0 08 	st  %g1, [ %g3 + 8 ]
 2f0:	81 c7 e0 08 	ret 
 2f4:	81 e8 00 00 	restore 

000002f8 <raac_CalcBitsUsed>:
 2f8:	9d e3 bf 90 	save  %sp, -112, %sp
 2fc:	f0 27 a0 44 	st  %i0, [ %fp + 0x44 ]
 300:	f2 27 a0 48 	st  %i1, [ %fp + 0x48 ]
 304:	f4 27 a0 4c 	st  %i2, [ %fp + 0x4c ]
 308:	c2 07 a0 44 	ld  [ %fp + 0x44 ], %g1
 30c:	c4 00 40 00 	ld  [ %g1 ], %g2
 310:	c2 07 a0 48 	ld  [ %fp + 0x48 ], %g1
 314:	82 20 80 01 	sub  %g2, %g1, %g1
 318:	83 28 60 03 	sll  %g1, 3, %g1
 31c:	c2 27 bf f4 	st  %g1, [ %fp + -12 ]
 320:	c2 07 a0 44 	ld  [ %fp + 0x44 ], %g1
 324:	c4 07 bf f4 	ld  [ %fp + -12 ], %g2
 328:	c2 00 60 08 	ld  [ %g1 + 8 ], %g1
 32c:	82 20 80 01 	sub  %g2, %g1, %g1
 330:	c2 27 bf f4 	st  %g1, [ %fp + -12 ]
 334:	c4 07 bf f4 	ld  [ %fp + -12 ], %g2
 338:	c2 07 a0 4c 	ld  [ %fp + 0x4c ], %g1
 33c:	82 20 80 01 	sub  %g2, %g1, %g1
 340:	c2 27 bf f4 	st  %g1, [ %fp + -12 ]
 344:	c2 07 bf f4 	ld  [ %fp + -12 ], %g1
 348:	b0 10 00 01 	mov  %g1, %i0
 34c:	81 c7 e0 08 	ret 
 350:	81 e8 00 00 	restore 

00000354 <raac_ByteAlignBitstream>:
 354:	9d e3 bf 90 	save  %sp, -112, %sp
 358:	f0 27 a0 44 	st  %i0, [ %fp + 0x44 ]
 35c:	c2 07 a0 44 	ld  [ %fp + 0x44 ], %g1
 360:	c2 00 60 08 	ld  [ %g1 + 8 ], %g1
 364:	82 08 60 07 	and  %g1, 7, %g1
 368:	c2 27 bf f4 	st  %g1, [ %fp + -12 ]
 36c:	d0 07 a0 44 	ld  [ %fp + 0x44 ], %o0
 370:	d2 07 bf f4 	ld  [ %fp + -12 ], %o1
 374:	40 00 00 00 	call  374 <raac_ByteAlignBitstream+0x20>
 378:	01 00 00 00 	nop 
 37c:	01 00 00 00 	nop 
 380:	81 c7 e0 08 	ret 
 384:	81 e8 00 00 	restore 

00000388 <RefillBitstreamCache>:
 388:	9d e3 bf 90 	save  %sp, -112, %sp
 38c:	f0 27 a0 44 	st  %i0, [ %fp + 0x44 ]
 390:	c2 07 a0 44 	ld  [ %fp + 0x44 ], %g1
 394:	c2 00 60 0c 	ld  [ %g1 + 0xc ], %g1
 398:	c2 27 bf f4 	st  %g1, [ %fp + -12 ]
 39c:	c2 07 bf f4 	ld  [ %fp + -12 ], %g1
 3a0:	80 a0 60 03 	cmp  %g1, 3
 3a4:	04 80 00 3c 	ble  494 <RefillBitstreamCache+0x10c>
 3a8:	01 00 00 00 	nop 
 3ac:	c8 07 a0 44 	ld  [ %fp + 0x44 ], %g4
 3b0:	c6 07 a0 44 	ld  [ %fp + 0x44 ], %g3
 3b4:	c4 00 c0 00 	ld  [ %g3 ], %g2
 3b8:	82 10 00 02 	mov  %g2, %g1
 3bc:	c2 08 40 00 	ldub  [ %g1 ], %g1
 3c0:	82 08 60 ff 	and  %g1, 0xff, %g1
 3c4:	83 28 60 18 	sll  %g1, 0x18, %g1
 3c8:	84 00 a0 01 	inc  %g2
 3cc:	c4 20 c0 00 	st  %g2, [ %g3 ]
 3d0:	c2 21 20 04 	st  %g1, [ %g4 + 4 ]
 3d4:	f8 07 a0 44 	ld  [ %fp + 0x44 ], %i4
 3d8:	fa 07 a0 44 	ld  [ %fp + 0x44 ], %i5
 3dc:	c8 07 a0 44 	ld  [ %fp + 0x44 ], %g4
 3e0:	c4 01 00 00 	ld  [ %g4 ], %g2
 3e4:	82 10 00 02 	mov  %g2, %g1
 3e8:	c2 08 40 00 	ldub  [ %g1 ], %g1
 3ec:	82 08 60 ff 	and  %g1, 0xff, %g1
 3f0:	87 28 60 10 	sll  %g1, 0x10, %g3
 3f4:	c2 07 60 04 	ld  [ %i5 + 4 ], %g1
 3f8:	82 10 40 03 	or  %g1, %g3, %g1
 3fc:	84 00 a0 01 	inc  %g2
 400:	c4 21 00 00 	st  %g2, [ %g4 ]
 404:	c2 27 20 04 	st  %g1, [ %i4 + 4 ]
 408:	f8 07 a0 44 	ld  [ %fp + 0x44 ], %i4
 40c:	fa 07 a0 44 	ld  [ %fp + 0x44 ], %i5
 410:	c8 07 a0 44 	ld  [ %fp + 0x44 ], %g4
 414:	c4 01 00 00 	ld  [ %g4 ], %g2
 418:	82 10 00 02 	mov  %g2, %g1
 41c:	c2 08 40 00 	ldub  [ %g1 ], %g1
 420:	82 08 60 ff 	and  %g1, 0xff, %g1
 424:	87 28 60 08 	sll  %g1, 8, %g3
 428:	c2 07 60 04 	ld  [ %i5 + 4 ], %g1
 42c:	82 10 40 03 	or  %g1, %g3, %g1
 430:	84 00 a0 01 	inc  %g2
 434:	c4 21 00 00 	st  %g2, [ %g4 ]
 438:	c2 27 20 04 	st  %g1, [ %i4 + 4 ]
 43c:	f8 07 a0 44 	ld  [ %fp + 0x44 ], %i4
 440:	c8 07 a0 44 	ld  [ %fp + 0x44 ], %g4
 444:	fa 07 a0 44 	ld  [ %fp + 0x44 ], %i5
 448:	c4 07 40 00 	ld  [ %i5 ], %g2
 44c:	82 10 00 02 	mov  %g2, %g1
 450:	c2 08 40 00 	ldub  [ %g1 ], %g1
 454:	86 08 60 ff 	and  %g1, 0xff, %g3
 458:	c2 01 20 04 	ld  [ %g4 + 4 ], %g1
 45c:	82 10 40 03 	or  %g1, %g3, %g1
 460:	84 00 a0 01 	inc  %g2
 464:	c4 27 40 00 	st  %g2, [ %i5 ]
 468:	c2 27 20 04 	st  %g1, [ %i4 + 4 ]
 46c:	c4 07 a0 44 	ld  [ %fp + 0x44 ], %g2
 470:	82 10 20 20 	mov  0x20, %g1
 474:	c2 20 a0 08 	st  %g1, [ %g2 + 8 ]
 478:	c4 07 a0 44 	ld  [ %fp + 0x44 ], %g2
 47c:	c2 07 a0 44 	ld  [ %fp + 0x44 ], %g1
 480:	c2 00 60 0c 	ld  [ %g1 + 0xc ], %g1
 484:	82 00 7f fc 	add  %g1, -4, %g1
 488:	c2 20 a0 0c 	st  %g1, [ %g2 + 0xc ]
 48c:	10 80 00 30 	b  54c <RefillBitstreamCache+0x1c4>
 490:	01 00 00 00 	nop 
 494:	c2 07 a0 44 	ld  [ %fp + 0x44 ], %g1
 498:	c0 20 60 04 	clr  [ %g1 + 4 ]
 49c:	c2 07 bf f4 	ld  [ %fp + -12 ], %g1
 4a0:	82 00 7f ff 	add  %g1, -1, %g1
 4a4:	c2 27 bf f4 	st  %g1, [ %fp + -12 ]
 4a8:	80 a0 7f ff 	cmp  %g1, -1
 4ac:	12 80 00 04 	bne  4bc <RefillBitstreamCache+0x134>
 4b0:	01 00 00 00 	nop 
 4b4:	10 80 00 15 	b  508 <RefillBitstreamCache+0x180>
 4b8:	01 00 00 00 	nop 
 4bc:	f8 07 a0 44 	ld  [ %fp + 0x44 ], %i4
 4c0:	c8 07 a0 44 	ld  [ %fp + 0x44 ], %g4
 4c4:	fa 07 a0 44 	ld  [ %fp + 0x44 ], %i5
 4c8:	c4 07 40 00 	ld  [ %i5 ], %g2
 4cc:	82 10 00 02 	mov  %g2, %g1
 4d0:	c2 08 40 00 	ldub  [ %g1 ], %g1
 4d4:	86 08 60 ff 	and  %g1, 0xff, %g3
 4d8:	c2 01 20 04 	ld  [ %g4 + 4 ], %g1
 4dc:	82 10 40 03 	or  %g1, %g3, %g1
 4e0:	84 00 a0 01 	inc  %g2
 4e4:	c4 27 40 00 	st  %g2, [ %i5 ]
 4e8:	c2 27 20 04 	st  %g1, [ %i4 + 4 ]
 4ec:	c4 07 a0 44 	ld  [ %fp + 0x44 ], %g2
 4f0:	c2 07 a0 44 	ld  [ %fp + 0x44 ], %g1
 4f4:	c2 00 60 04 	ld  [ %g1 + 4 ], %g1
 4f8:	83 28 60 08 	sll  %g1, 8, %g1
 4fc:	c2 20 a0 04 	st  %g1, [ %g2 + 4 ]
 500:	10 bf ff e7 	b  49c <RefillBitstreamCache+0x114>
 504:	01 00 00 00 	nop 
 508:	c6 07 a0 44 	ld  [ %fp + 0x44 ], %g3
 50c:	c8 07 a0 44 	ld  [ %fp + 0x44 ], %g4
 510:	c2 07 a0 44 	ld  [ %fp + 0x44 ], %g1
 514:	84 10 20 03 	mov  3, %g2
 518:	c2 00 60 0c 	ld  [ %g1 + 0xc ], %g1
 51c:	82 20 80 01 	sub  %g2, %g1, %g1
 520:	85 28 60 03 	sll  %g1, 3, %g2
 524:	c2 01 20 04 	ld  [ %g4 + 4 ], %g1
 528:	83 28 40 02 	sll  %g1, %g2, %g1
 52c:	c2 20 e0 04 	st  %g1, [ %g3 + 4 ]
 530:	c4 07 a0 44 	ld  [ %fp + 0x44 ], %g2
 534:	c2 07 a0 44 	ld  [ %fp + 0x44 ], %g1
 538:	c2 00 60 0c 	ld  [ %g1 + 0xc ], %g1
 53c:	83 28 60 03 	sll  %g1, 3, %g1
 540:	c2 20 a0 08 	st  %g1, [ %g2 + 8 ]
 544:	c2 07 a0 44 	ld  [ %fp + 0x44 ], %g1
 548:	c0 20 60 0c 	clr  [ %g1 + 0xc ]
 54c:	81 c7 e0 08 	ret 
 550:	81 e8 00 00 	restore 
