
buffers.o:     file format elf32-sparc
buffers.o

Disassembly of section .text:

00000000 <raac_ClearBuffer>:
   0:	9d e3 bf 90 	save  %sp, -112, %sp
   4:	f0 27 a0 44 	st  %i0, [ %fp + 0x44 ]
   8:	f2 27 a0 48 	st  %i1, [ %fp + 0x48 ]
   c:	c2 07 a0 44 	ld  [ %fp + 0x44 ], %g1
  10:	c2 27 bf f0 	st  %g1, [ %fp + -16 ]
  14:	c0 27 bf f4 	clr  [ %fp + -12 ]
  18:	c4 07 bf f4 	ld  [ %fp + -12 ], %g2
  1c:	c2 07 a0 48 	ld  [ %fp + 0x48 ], %g1
  20:	80 a0 80 01 	cmp  %g2, %g1
  24:	06 80 00 04 	bl  34 <raac_ClearBuffer+0x34>
  28:	01 00 00 00 	nop 
  2c:	10 80 00 0b 	b  58 <raac_ClearBuffer+0x58>
  30:	01 00 00 00 	nop 
  34:	c4 07 bf f0 	ld  [ %fp + -16 ], %g2
  38:	c2 07 bf f4 	ld  [ %fp + -12 ], %g1
  3c:	82 00 80 01 	add  %g2, %g1, %g1
  40:	c0 28 40 00 	clrb  [ %g1 ]
  44:	c2 07 bf f4 	ld  [ %fp + -12 ], %g1
  48:	82 00 60 01 	inc  %g1
  4c:	c2 27 bf f4 	st  %g1, [ %fp + -12 ]
  50:	10 bf ff f2 	b  18 <raac_ClearBuffer+0x18>
  54:	01 00 00 00 	nop 
  58:	81 c7 e0 08 	ret 
  5c:	81 e8 00 00 	restore 

00000060 <raac_AllocateBuffers>:
  60:	9d e3 bf 90 	save  %sp, -112, %sp
  64:	90 10 20 60 	mov  0x60, %o0
  68:	40 00 00 00 	call  68 <raac_AllocateBuffers+0x8>
  6c:	01 00 00 00 	nop 
  70:	82 10 00 08 	mov  %o0, %g1
  74:	c2 27 bf f4 	st  %g1, [ %fp + -12 ]
  78:	c2 07 bf f4 	ld  [ %fp + -12 ], %g1
  7c:	80 a0 60 00 	cmp  %g1, 0
  80:	12 80 00 05 	bne  94 <raac_AllocateBuffers+0x34>
  84:	01 00 00 00 	nop 
  88:	c0 27 bf f0 	clr  [ %fp + -16 ]
  8c:	10 80 00 20 	b  10c <raac_AllocateBuffers+0xac>
  90:	01 00 00 00 	nop 
  94:	d0 07 bf f4 	ld  [ %fp + -12 ], %o0
  98:	92 10 20 60 	mov  0x60, %o1
  9c:	40 00 00 00 	call  9c <raac_AllocateBuffers+0x3c>
  a0:	01 00 00 00 	nop 
  a4:	e0 07 bf f4 	ld  [ %fp + -12 ], %l0
  a8:	03 00 00 14 	sethi  %hi(0x5000), %g1
  ac:	90 10 60 50 	or  %g1, 0x50, %o0	! 5050 <raac_FreeBuffers+0x4f38>
  b0:	40 00 00 00 	call  b0 <raac_AllocateBuffers+0x50>
  b4:	01 00 00 00 	nop 
  b8:	82 10 00 08 	mov  %o0, %g1
  bc:	c2 24 00 00 	st  %g1, [ %l0 ]
  c0:	c2 07 bf f4 	ld  [ %fp + -12 ], %g1
  c4:	c2 00 40 00 	ld  [ %g1 ], %g1
  c8:	80 a0 60 00 	cmp  %g1, 0
  cc:	12 80 00 08 	bne  ec <raac_AllocateBuffers+0x8c>
  d0:	01 00 00 00 	nop 
  d4:	d0 07 bf f4 	ld  [ %fp + -12 ], %o0
  d8:	40 00 00 00 	call  d8 <raac_AllocateBuffers+0x78>
  dc:	01 00 00 00 	nop 
  e0:	c0 27 bf f0 	clr  [ %fp + -16 ]
  e4:	10 80 00 0a 	b  10c <raac_AllocateBuffers+0xac>
  e8:	01 00 00 00 	nop 
  ec:	c2 07 bf f4 	ld  [ %fp + -12 ], %g1
  f0:	d0 00 40 00 	ld  [ %g1 ], %o0
  f4:	03 00 00 14 	sethi  %hi(0x5000), %g1
  f8:	92 10 60 50 	or  %g1, 0x50, %o1	! 5050 <raac_FreeBuffers+0x4f38>
  fc:	40 00 00 00 	call  fc <raac_AllocateBuffers+0x9c>
 100:	01 00 00 00 	nop 
 104:	c2 07 bf f4 	ld  [ %fp + -12 ], %g1
 108:	c2 27 bf f0 	st  %g1, [ %fp + -16 ]
 10c:	f0 07 bf f0 	ld  [ %fp + -16 ], %i0
 110:	81 c7 e0 08 	ret 
 114:	81 e8 00 00 	restore 

00000118 <raac_FreeBuffers>:
 118:	9d e3 bf 98 	save  %sp, -104, %sp
 11c:	f0 27 a0 44 	st  %i0, [ %fp + 0x44 ]
 120:	c2 07 a0 44 	ld  [ %fp + 0x44 ], %g1
 124:	80 a0 60 00 	cmp  %g1, 0
 128:	12 80 00 04 	bne  138 <raac_FreeBuffers+0x20>
 12c:	01 00 00 00 	nop 
 130:	10 80 00 15 	b  184 <raac_FreeBuffers+0x6c>
 134:	01 00 00 00 	nop 
 138:	c2 07 a0 44 	ld  [ %fp + 0x44 ], %g1
 13c:	c2 00 40 00 	ld  [ %g1 ], %g1
 140:	80 a0 60 00 	cmp  %g1, 0
 144:	02 80 00 06 	be  15c <raac_FreeBuffers+0x44>
 148:	01 00 00 00 	nop 
 14c:	c2 07 a0 44 	ld  [ %fp + 0x44 ], %g1
 150:	d0 00 40 00 	ld  [ %g1 ], %o0
 154:	40 00 00 00 	call  154 <raac_FreeBuffers+0x3c>
 158:	01 00 00 00 	nop 
 15c:	c2 07 a0 44 	ld  [ %fp + 0x44 ], %g1
 160:	c0 20 40 00 	clr  [ %g1 ]
 164:	c2 07 a0 44 	ld  [ %fp + 0x44 ], %g1
 168:	80 a0 60 00 	cmp  %g1, 0
 16c:	02 80 00 05 	be  180 <raac_FreeBuffers+0x68>
 170:	01 00 00 00 	nop 
 174:	d0 07 a0 44 	ld  [ %fp + 0x44 ], %o0
 178:	40 00 00 00 	call  178 <raac_FreeBuffers+0x60>
 17c:	01 00 00 00 	nop 
 180:	c0 27 a0 44 	clr  [ %fp + 0x44 ]
 184:	81 c7 e0 08 	ret 
 188:	81 e8 00 00 	restore 
