
decelmnt.o:     file format elf32-sparc
decelmnt.o

Disassembly of section .text:

00000000 <DecodeSingleChannelElement-0x20>:
   0:	00 00 0c a4 	unimp  0xca4
   4:	00 00 0c c8 	unimp  0xcc8
   8:	00 00 0d 7c 	unimp  0xd7c
   c:	00 00 0c ec 	unimp  0xcec
  10:	00 00 0d 10 	unimp  0xd10
  14:	00 00 0d 34 	unimp  0xd34
  18:	00 00 0d 60 	unimp  0xd60
  1c:	00 00 0d 7c 	unimp  0xd7c

00000020 <DecodeSingleChannelElement>:
  20:	9d e3 bf 90 	save  %sp, -112, %sp
  24:	f0 27 a0 44 	st  %i0, [ %fp + 0x44 ]
  28:	f2 27 a0 48 	st  %i1, [ %fp + 0x48 ]
  2c:	c2 07 a0 44 	ld  [ %fp + 0x44 ], %g1
  30:	80 a0 60 00 	cmp  %g1, 0
  34:	02 80 00 07 	be  50 <DecodeSingleChannelElement+0x30>
  38:	01 00 00 00 	nop 
  3c:	c2 07 a0 44 	ld  [ %fp + 0x44 ], %g1
  40:	c2 00 40 00 	ld  [ %g1 ], %g1
  44:	80 a0 60 00 	cmp  %g1, 0
  48:	12 80 00 06 	bne  60 <DecodeSingleChannelElement+0x40>
  4c:	01 00 00 00 	nop 
  50:	82 10 3f ff 	mov  -1, %g1	! ffffffff <raac_DecodeNextElement+0xfffff48b>
  54:	c2 27 bf f4 	st  %g1, [ %fp + -12 ]
  58:	10 80 00 09 	b  7c <DecodeSingleChannelElement+0x5c>
  5c:	01 00 00 00 	nop 
  60:	e0 07 a0 44 	ld  [ %fp + 0x44 ], %l0
  64:	d0 07 a0 48 	ld  [ %fp + 0x48 ], %o0
  68:	92 10 20 04 	mov  4, %o1
  6c:	40 00 00 00 	call  6c <DecodeSingleChannelElement+0x4c>
  70:	01 00 00 00 	nop 
  74:	d0 24 20 2c 	st  %o0, [ %l0 + 0x2c ]
  78:	c0 27 bf f4 	clr  [ %fp + -12 ]
  7c:	f0 07 bf f4 	ld  [ %fp + -12 ], %i0
  80:	81 c7 e0 08 	ret 
  84:	81 e8 00 00 	restore 

00000088 <DecodeChannelPairElement>:
  88:	9d e3 bf 78 	save  %sp, -136, %sp
  8c:	f0 27 a0 44 	st  %i0, [ %fp + 0x44 ]
  90:	f2 27 a0 48 	st  %i1, [ %fp + 0x48 ]
  94:	c2 07 a0 44 	ld  [ %fp + 0x44 ], %g1
  98:	80 a0 60 00 	cmp  %g1, 0
  9c:	02 80 00 07 	be  b8 <DecodeChannelPairElement+0x30>
  a0:	01 00 00 00 	nop 
  a4:	c2 07 a0 44 	ld  [ %fp + 0x44 ], %g1
  a8:	c2 00 40 00 	ld  [ %g1 ], %g1
  ac:	80 a0 60 00 	cmp  %g1, 0
  b0:	12 80 00 06 	bne  c8 <DecodeChannelPairElement+0x40>
  b4:	01 00 00 00 	nop 
  b8:	82 10 3f ff 	mov  -1, %g1	! ffffffff <raac_DecodeNextElement+0xfffff48b>
  bc:	c2 27 bf d8 	st  %g1, [ %fp + -40 ]
  c0:	10 80 00 6a 	b  268 <DecodeChannelPairElement+0x1e0>
  c4:	01 00 00 00 	nop 
  c8:	c2 07 a0 44 	ld  [ %fp + 0x44 ], %g1
  cc:	c2 00 40 00 	ld  [ %g1 ], %g1
  d0:	c2 27 bf e0 	st  %g1, [ %fp + -32 ]
  d4:	c2 07 bf e0 	ld  [ %fp + -32 ], %g1
  d8:	82 00 68 7c 	add  %g1, 0x87c, %g1
  dc:	c2 27 bf dc 	st  %g1, [ %fp + -36 ]
  e0:	e0 07 a0 44 	ld  [ %fp + 0x44 ], %l0
  e4:	d0 07 a0 48 	ld  [ %fp + 0x48 ], %o0
  e8:	92 10 20 04 	mov  4, %o1
  ec:	40 00 00 00 	call  ec <DecodeChannelPairElement+0x64>
  f0:	01 00 00 00 	nop 
  f4:	d0 24 20 2c 	st  %o0, [ %l0 + 0x2c ]
  f8:	e0 07 bf e0 	ld  [ %fp + -32 ], %l0
  fc:	d0 07 a0 48 	ld  [ %fp + 0x48 ], %o0
 100:	92 10 20 01 	mov  1, %o1
 104:	40 00 00 00 	call  104 <DecodeChannelPairElement+0x7c>
 108:	01 00 00 00 	nop 
 10c:	d0 24 28 f0 	st  %o0, [ %l0 + 0x8f0 ]
 110:	c2 07 bf e0 	ld  [ %fp + -32 ], %g1
 114:	c2 00 68 f0 	ld  [ %g1 + 0x8f0 ], %g1
 118:	80 a0 60 00 	cmp  %g1, 0
 11c:	02 80 00 52 	be  264 <DecodeChannelPairElement+0x1dc>
 120:	01 00 00 00 	nop 
 124:	c2 07 bf e0 	ld  [ %fp + -32 ], %g1
 128:	d0 07 a0 48 	ld  [ %fp + 0x48 ], %o0
 12c:	d2 07 bf dc 	ld  [ %fp + -36 ], %o1
 130:	d4 00 68 78 	ld  [ %g1 + 0x878 ], %o2
 134:	40 00 00 00 	call  134 <DecodeChannelPairElement+0xac>
 138:	01 00 00 00 	nop 
 13c:	e0 07 bf e0 	ld  [ %fp + -32 ], %l0
 140:	d0 07 a0 48 	ld  [ %fp + 0x48 ], %o0
 144:	92 10 20 02 	mov  2, %o1
 148:	40 00 00 00 	call  148 <DecodeChannelPairElement+0xc0>
 14c:	01 00 00 00 	nop 
 150:	d0 24 2b c4 	st  %o0, [ %l0 + 0xbc4 ]
 154:	c2 07 bf e0 	ld  [ %fp + -32 ], %g1
 158:	c2 00 6b c4 	ld  [ %g1 + 0xbc4 ], %g1
 15c:	80 a0 60 01 	cmp  %g1, 1
 160:	12 80 00 41 	bne  264 <DecodeChannelPairElement+0x1dc>
 164:	01 00 00 00 	nop 
 168:	c2 07 bf e0 	ld  [ %fp + -32 ], %g1
 16c:	82 00 6b c8 	add  %g1, 0xbc8, %g1
 170:	c2 27 bf e4 	st  %g1, [ %fp + -28 ]
 174:	c2 07 bf e4 	ld  [ %fp + -28 ], %g1
 178:	c0 28 40 00 	clrb  [ %g1 ]
 17c:	c0 27 bf ec 	clr  [ %fp + -20 ]
 180:	c0 27 bf f0 	clr  [ %fp + -16 ]
 184:	c2 07 bf dc 	ld  [ %fp + -36 ], %g1
 188:	c2 08 60 31 	ldub  [ %g1 + 0x31 ], %g1
 18c:	84 08 60 ff 	and  %g1, 0xff, %g2
 190:	c2 07 bf f0 	ld  [ %fp + -16 ], %g1
 194:	80 a0 40 02 	cmp  %g1, %g2
 198:	06 80 00 04 	bl  1a8 <DecodeChannelPairElement+0x120>
 19c:	01 00 00 00 	nop 
 1a0:	10 80 00 31 	b  264 <DecodeChannelPairElement+0x1dc>
 1a4:	01 00 00 00 	nop 
 1a8:	c0 27 bf f4 	clr  [ %fp + -12 ]
 1ac:	c2 07 bf dc 	ld  [ %fp + -36 ], %g1
 1b0:	c2 08 60 03 	ldub  [ %g1 + 3 ], %g1
 1b4:	84 08 60 ff 	and  %g1, 0xff, %g2
 1b8:	c2 07 bf f4 	ld  [ %fp + -12 ], %g1
 1bc:	80 a0 40 02 	cmp  %g1, %g2
 1c0:	06 80 00 04 	bl  1d0 <DecodeChannelPairElement+0x148>
 1c4:	01 00 00 00 	nop 
 1c8:	10 80 00 22 	b  250 <DecodeChannelPairElement+0x1c8>
 1cc:	01 00 00 00 	nop 
 1d0:	d0 07 a0 48 	ld  [ %fp + 0x48 ], %o0
 1d4:	92 10 20 01 	mov  1, %o1
 1d8:	40 00 00 00 	call  1d8 <DecodeChannelPairElement+0x150>
 1dc:	01 00 00 00 	nop 
 1e0:	82 10 00 08 	mov  %o0, %g1
 1e4:	c2 2f bf eb 	stb  %g1, [ %fp + -21 ]
 1e8:	c8 07 bf e4 	ld  [ %fp + -28 ], %g4
 1ec:	c6 07 bf e4 	ld  [ %fp + -28 ], %g3
 1f0:	c2 0f bf eb 	ldub  [ %fp + -21 ], %g1
 1f4:	84 08 60 ff 	and  %g1, 0xff, %g2
 1f8:	c2 07 bf ec 	ld  [ %fp + -20 ], %g1
 1fc:	83 28 80 01 	sll  %g2, %g1, %g1
 200:	c4 08 c0 00 	ldub  [ %g3 ], %g2
 204:	82 10 80 01 	or  %g2, %g1, %g1
 208:	c2 29 00 00 	stb  %g1, [ %g4 ]
 20c:	c2 07 bf ec 	ld  [ %fp + -20 ], %g1
 210:	82 00 60 01 	inc  %g1
 214:	c2 27 bf ec 	st  %g1, [ %fp + -20 ]
 218:	80 a0 60 08 	cmp  %g1, 8
 21c:	12 80 00 08 	bne  23c <DecodeChannelPairElement+0x1b4>
 220:	01 00 00 00 	nop 
 224:	c2 07 bf e4 	ld  [ %fp + -28 ], %g1
 228:	82 00 60 01 	inc  %g1
 22c:	c2 27 bf e4 	st  %g1, [ %fp + -28 ]
 230:	c2 07 bf e4 	ld  [ %fp + -28 ], %g1
 234:	c0 28 40 00 	clrb  [ %g1 ]
 238:	c0 27 bf ec 	clr  [ %fp + -20 ]
 23c:	c2 07 bf f4 	ld  [ %fp + -12 ], %g1
 240:	82 00 60 01 	inc  %g1
 244:	c2 27 bf f4 	st  %g1, [ %fp + -12 ]
 248:	10 bf ff d9 	b  1ac <DecodeChannelPairElement+0x124>
 24c:	01 00 00 00 	nop 
 250:	c2 07 bf f0 	ld  [ %fp + -16 ], %g1
 254:	82 00 60 01 	inc  %g1
 258:	c2 27 bf f0 	st  %g1, [ %fp + -16 ]
 25c:	10 bf ff ca 	b  184 <DecodeChannelPairElement+0xfc>
 260:	01 00 00 00 	nop 
 264:	c0 27 bf d8 	clr  [ %fp + -40 ]
 268:	f0 07 bf d8 	ld  [ %fp + -40 ], %i0
 26c:	81 c7 e0 08 	ret 
 270:	81 e8 00 00 	restore 

00000274 <DecodeLFEChannelElement>:
 274:	9d e3 bf 90 	save  %sp, -112, %sp
 278:	f0 27 a0 44 	st  %i0, [ %fp + 0x44 ]
 27c:	f2 27 a0 48 	st  %i1, [ %fp + 0x48 ]
 280:	c2 07 a0 44 	ld  [ %fp + 0x44 ], %g1
 284:	80 a0 60 00 	cmp  %g1, 0
 288:	02 80 00 07 	be  2a4 <DecodeLFEChannelElement+0x30>
 28c:	01 00 00 00 	nop 
 290:	c2 07 a0 44 	ld  [ %fp + 0x44 ], %g1
 294:	c2 00 40 00 	ld  [ %g1 ], %g1
 298:	80 a0 60 00 	cmp  %g1, 0
 29c:	12 80 00 06 	bne  2b4 <DecodeLFEChannelElement+0x40>
 2a0:	01 00 00 00 	nop 
 2a4:	82 10 3f ff 	mov  -1, %g1	! ffffffff <raac_DecodeNextElement+0xfffff48b>
 2a8:	c2 27 bf f4 	st  %g1, [ %fp + -12 ]
 2ac:	10 80 00 09 	b  2d0 <DecodeLFEChannelElement+0x5c>
 2b0:	01 00 00 00 	nop 
 2b4:	e0 07 a0 44 	ld  [ %fp + 0x44 ], %l0
 2b8:	d0 07 a0 48 	ld  [ %fp + 0x48 ], %o0
 2bc:	92 10 20 04 	mov  4, %o1
 2c0:	40 00 00 00 	call  2c0 <DecodeLFEChannelElement+0x4c>
 2c4:	01 00 00 00 	nop 
 2c8:	d0 24 20 2c 	st  %o0, [ %l0 + 0x2c ]
 2cc:	c0 27 bf f4 	clr  [ %fp + -12 ]
 2d0:	f0 07 bf f4 	ld  [ %fp + -12 ], %i0
 2d4:	81 c7 e0 08 	ret 
 2d8:	81 e8 00 00 	restore 

000002dc <DecodeDataStreamElement>:
 2dc:	9d e3 bf 80 	save  %sp, -128, %sp
 2e0:	f0 27 a0 44 	st  %i0, [ %fp + 0x44 ]
 2e4:	f2 27 a0 48 	st  %i1, [ %fp + 0x48 ]
 2e8:	c2 07 a0 44 	ld  [ %fp + 0x44 ], %g1
 2ec:	80 a0 60 00 	cmp  %g1, 0
 2f0:	02 80 00 07 	be  30c <DecodeDataStreamElement+0x30>
 2f4:	01 00 00 00 	nop 
 2f8:	c2 07 a0 44 	ld  [ %fp + 0x44 ], %g1
 2fc:	c2 00 40 00 	ld  [ %g1 ], %g1
 300:	80 a0 60 00 	cmp  %g1, 0
 304:	12 80 00 06 	bne  31c <DecodeDataStreamElement+0x40>
 308:	01 00 00 00 	nop 
 30c:	82 10 3f ff 	mov  -1, %g1	! ffffffff <raac_DecodeNextElement+0xfffff48b>
 310:	c2 27 bf e4 	st  %g1, [ %fp + -28 ]
 314:	10 80 00 46 	b  42c <DecodeDataStreamElement+0x150>
 318:	01 00 00 00 	nop 
 31c:	c2 07 a0 44 	ld  [ %fp + 0x44 ], %g1
 320:	c2 00 40 00 	ld  [ %g1 ], %g1
 324:	c2 27 bf e8 	st  %g1, [ %fp + -24 ]
 328:	e0 07 a0 44 	ld  [ %fp + 0x44 ], %l0
 32c:	d0 07 a0 48 	ld  [ %fp + 0x48 ], %o0
 330:	92 10 20 04 	mov  4, %o1
 334:	40 00 00 00 	call  334 <DecodeDataStreamElement+0x58>
 338:	01 00 00 00 	nop 
 33c:	d0 24 20 2c 	st  %o0, [ %l0 + 0x2c ]
 340:	d0 07 a0 48 	ld  [ %fp + 0x48 ], %o0
 344:	92 10 20 01 	mov  1, %o1
 348:	40 00 00 00 	call  348 <DecodeDataStreamElement+0x6c>
 34c:	01 00 00 00 	nop 
 350:	82 10 00 08 	mov  %o0, %g1
 354:	c2 27 bf f4 	st  %g1, [ %fp + -12 ]
 358:	d0 07 a0 48 	ld  [ %fp + 0x48 ], %o0
 35c:	92 10 20 08 	mov  8, %o1
 360:	40 00 00 00 	call  360 <DecodeDataStreamElement+0x84>
 364:	01 00 00 00 	nop 
 368:	82 10 00 08 	mov  %o0, %g1
 36c:	c2 27 bf f0 	st  %g1, [ %fp + -16 ]
 370:	c2 07 bf f0 	ld  [ %fp + -16 ], %g1
 374:	80 a0 60 ff 	cmp  %g1, 0xff
 378:	12 80 00 0a 	bne  3a0 <DecodeDataStreamElement+0xc4>
 37c:	01 00 00 00 	nop 
 380:	d0 07 a0 48 	ld  [ %fp + 0x48 ], %o0
 384:	92 10 20 08 	mov  8, %o1
 388:	40 00 00 00 	call  388 <DecodeDataStreamElement+0xac>
 38c:	01 00 00 00 	nop 
 390:	82 10 00 08 	mov  %o0, %g1
 394:	c4 07 bf f0 	ld  [ %fp + -16 ], %g2
 398:	82 00 80 01 	add  %g2, %g1, %g1
 39c:	c2 27 bf f0 	st  %g1, [ %fp + -16 ]
 3a0:	c2 07 bf f4 	ld  [ %fp + -12 ], %g1
 3a4:	80 a0 60 00 	cmp  %g1, 0
 3a8:	02 80 00 05 	be  3bc <DecodeDataStreamElement+0xe0>
 3ac:	01 00 00 00 	nop 
 3b0:	d0 07 a0 48 	ld  [ %fp + 0x48 ], %o0
 3b4:	40 00 00 00 	call  3b4 <DecodeDataStreamElement+0xd8>
 3b8:	01 00 00 00 	nop 
 3bc:	c4 07 bf e8 	ld  [ %fp + -24 ], %g2
 3c0:	c2 07 bf f0 	ld  [ %fp + -16 ], %g1
 3c4:	c2 20 a5 58 	st  %g1, [ %g2 + 0x558 ]
 3c8:	c2 07 bf e8 	ld  [ %fp + -24 ], %g1
 3cc:	82 00 65 5c 	add  %g1, 0x55c, %g1
 3d0:	c2 27 bf ec 	st  %g1, [ %fp + -20 ]
 3d4:	c2 07 bf f0 	ld  [ %fp + -16 ], %g1
 3d8:	82 00 7f ff 	add  %g1, -1, %g1
 3dc:	c2 27 bf f0 	st  %g1, [ %fp + -16 ]
 3e0:	80 a0 7f ff 	cmp  %g1, -1
 3e4:	12 80 00 04 	bne  3f4 <DecodeDataStreamElement+0x118>
 3e8:	01 00 00 00 	nop 
 3ec:	10 80 00 0f 	b  428 <DecodeDataStreamElement+0x14c>
 3f0:	01 00 00 00 	nop 
 3f4:	84 07 bf ec 	add  %fp, -20, %g2
 3f8:	c2 00 80 00 	ld  [ %g2 ], %g1
 3fc:	a0 10 00 01 	mov  %g1, %l0
 400:	82 00 60 01 	inc  %g1
 404:	c2 20 80 00 	st  %g1, [ %g2 ]
 408:	d0 07 a0 48 	ld  [ %fp + 0x48 ], %o0
 40c:	92 10 20 08 	mov  8, %o1
 410:	40 00 00 00 	call  410 <DecodeDataStreamElement+0x134>
 414:	01 00 00 00 	nop 
 418:	82 10 00 08 	mov  %o0, %g1
 41c:	c2 2c 00 00 	stb  %g1, [ %l0 ]
 420:	10 bf ff ed 	b  3d4 <DecodeDataStreamElement+0xf8>
 424:	01 00 00 00 	nop 
 428:	c0 27 bf e4 	clr  [ %fp + -28 ]
 42c:	f0 07 bf e4 	ld  [ %fp + -28 ], %i0
 430:	81 c7 e0 08 	ret 
 434:	81 e8 00 00 	restore 

00000438 <raac_DecodeProgramConfigElement>:
 438:	9d e3 bf 90 	save  %sp, -112, %sp
 43c:	f0 27 a0 44 	st  %i0, [ %fp + 0x44 ]
 440:	f2 27 a0 48 	st  %i1, [ %fp + 0x48 ]
 444:	e0 07 a0 44 	ld  [ %fp + 0x44 ], %l0
 448:	d0 07 a0 48 	ld  [ %fp + 0x48 ], %o0
 44c:	92 10 20 04 	mov  4, %o1
 450:	40 00 00 00 	call  450 <raac_DecodeProgramConfigElement+0x18>
 454:	01 00 00 00 	nop 
 458:	82 10 00 08 	mov  %o0, %g1
 45c:	c2 2c 00 00 	stb  %g1, [ %l0 ]
 460:	e0 07 a0 44 	ld  [ %fp + 0x44 ], %l0
 464:	d0 07 a0 48 	ld  [ %fp + 0x48 ], %o0
 468:	92 10 20 02 	mov  2, %o1
 46c:	40 00 00 00 	call  46c <raac_DecodeProgramConfigElement+0x34>
 470:	01 00 00 00 	nop 
 474:	82 10 00 08 	mov  %o0, %g1
 478:	c2 2c 20 01 	stb  %g1, [ %l0 + 1 ]
 47c:	e0 07 a0 44 	ld  [ %fp + 0x44 ], %l0
 480:	d0 07 a0 48 	ld  [ %fp + 0x48 ], %o0
 484:	92 10 20 04 	mov  4, %o1
 488:	40 00 00 00 	call  488 <raac_DecodeProgramConfigElement+0x50>
 48c:	01 00 00 00 	nop 
 490:	82 10 00 08 	mov  %o0, %g1
 494:	c2 2c 20 02 	stb  %g1, [ %l0 + 2 ]
 498:	e0 07 a0 44 	ld  [ %fp + 0x44 ], %l0
 49c:	d0 07 a0 48 	ld  [ %fp + 0x48 ], %o0
 4a0:	92 10 20 04 	mov  4, %o1
 4a4:	40 00 00 00 	call  4a4 <raac_DecodeProgramConfigElement+0x6c>
 4a8:	01 00 00 00 	nop 
 4ac:	82 10 00 08 	mov  %o0, %g1
 4b0:	c2 2c 20 03 	stb  %g1, [ %l0 + 3 ]
 4b4:	e0 07 a0 44 	ld  [ %fp + 0x44 ], %l0
 4b8:	d0 07 a0 48 	ld  [ %fp + 0x48 ], %o0
 4bc:	92 10 20 04 	mov  4, %o1
 4c0:	40 00 00 00 	call  4c0 <raac_DecodeProgramConfigElement+0x88>
 4c4:	01 00 00 00 	nop 
 4c8:	82 10 00 08 	mov  %o0, %g1
 4cc:	c2 2c 20 04 	stb  %g1, [ %l0 + 4 ]
 4d0:	e0 07 a0 44 	ld  [ %fp + 0x44 ], %l0
 4d4:	d0 07 a0 48 	ld  [ %fp + 0x48 ], %o0
 4d8:	92 10 20 04 	mov  4, %o1
 4dc:	40 00 00 00 	call  4dc <raac_DecodeProgramConfigElement+0xa4>
 4e0:	01 00 00 00 	nop 
 4e4:	82 10 00 08 	mov  %o0, %g1
 4e8:	c2 2c 20 05 	stb  %g1, [ %l0 + 5 ]
 4ec:	e0 07 a0 44 	ld  [ %fp + 0x44 ], %l0
 4f0:	d0 07 a0 48 	ld  [ %fp + 0x48 ], %o0
 4f4:	92 10 20 02 	mov  2, %o1
 4f8:	40 00 00 00 	call  4f8 <raac_DecodeProgramConfigElement+0xc0>
 4fc:	01 00 00 00 	nop 
 500:	82 10 00 08 	mov  %o0, %g1
 504:	c2 2c 20 06 	stb  %g1, [ %l0 + 6 ]
 508:	e0 07 a0 44 	ld  [ %fp + 0x44 ], %l0
 50c:	d0 07 a0 48 	ld  [ %fp + 0x48 ], %o0
 510:	92 10 20 03 	mov  3, %o1
 514:	40 00 00 00 	call  514 <raac_DecodeProgramConfigElement+0xdc>
 518:	01 00 00 00 	nop 
 51c:	82 10 00 08 	mov  %o0, %g1
 520:	c2 2c 20 07 	stb  %g1, [ %l0 + 7 ]
 524:	e0 07 a0 44 	ld  [ %fp + 0x44 ], %l0
 528:	d0 07 a0 48 	ld  [ %fp + 0x48 ], %o0
 52c:	92 10 20 04 	mov  4, %o1
 530:	40 00 00 00 	call  530 <raac_DecodeProgramConfigElement+0xf8>
 534:	01 00 00 00 	nop 
 538:	82 10 00 08 	mov  %o0, %g1
 53c:	c2 2c 20 08 	stb  %g1, [ %l0 + 8 ]
 540:	e0 07 a0 44 	ld  [ %fp + 0x44 ], %l0
 544:	d0 07 a0 48 	ld  [ %fp + 0x48 ], %o0
 548:	92 10 20 01 	mov  1, %o1
 54c:	40 00 00 00 	call  54c <raac_DecodeProgramConfigElement+0x114>
 550:	01 00 00 00 	nop 
 554:	82 10 00 08 	mov  %o0, %g1
 558:	83 28 60 04 	sll  %g1, 4, %g1
 55c:	c2 2c 20 09 	stb  %g1, [ %l0 + 9 ]
 560:	c2 07 a0 44 	ld  [ %fp + 0x44 ], %g1
 564:	c2 08 60 09 	ldub  [ %g1 + 9 ], %g1
 568:	82 08 60 ff 	and  %g1, 0xff, %g1
 56c:	80 a0 60 00 	cmp  %g1, 0
 570:	02 80 00 0c 	be  5a0 <raac_DecodeProgramConfigElement+0x168>
 574:	01 00 00 00 	nop 
 578:	e2 07 a0 44 	ld  [ %fp + 0x44 ], %l1
 57c:	e0 07 a0 44 	ld  [ %fp + 0x44 ], %l0
 580:	d0 07 a0 48 	ld  [ %fp + 0x48 ], %o0
 584:	92 10 20 04 	mov  4, %o1
 588:	40 00 00 00 	call  588 <raac_DecodeProgramConfigElement+0x150>
 58c:	01 00 00 00 	nop 
 590:	82 10 00 08 	mov  %o0, %g1
 594:	c4 0c 20 09 	ldub  [ %l0 + 9 ], %g2
 598:	82 10 80 01 	or  %g2, %g1, %g1
 59c:	c2 2c 60 09 	stb  %g1, [ %l1 + 9 ]
 5a0:	e0 07 a0 44 	ld  [ %fp + 0x44 ], %l0
 5a4:	d0 07 a0 48 	ld  [ %fp + 0x48 ], %o0
 5a8:	92 10 20 01 	mov  1, %o1
 5ac:	40 00 00 00 	call  5ac <raac_DecodeProgramConfigElement+0x174>
 5b0:	01 00 00 00 	nop 
 5b4:	82 10 00 08 	mov  %o0, %g1
 5b8:	83 28 60 04 	sll  %g1, 4, %g1
 5bc:	c2 2c 20 0a 	stb  %g1, [ %l0 + 0xa ]
 5c0:	c2 07 a0 44 	ld  [ %fp + 0x44 ], %g1
 5c4:	c2 08 60 0a 	ldub  [ %g1 + 0xa ], %g1
 5c8:	82 08 60 ff 	and  %g1, 0xff, %g1
 5cc:	80 a0 60 00 	cmp  %g1, 0
 5d0:	02 80 00 0c 	be  600 <raac_DecodeProgramConfigElement+0x1c8>
 5d4:	01 00 00 00 	nop 
 5d8:	e2 07 a0 44 	ld  [ %fp + 0x44 ], %l1
 5dc:	e0 07 a0 44 	ld  [ %fp + 0x44 ], %l0
 5e0:	d0 07 a0 48 	ld  [ %fp + 0x48 ], %o0
 5e4:	92 10 20 04 	mov  4, %o1
 5e8:	40 00 00 00 	call  5e8 <raac_DecodeProgramConfigElement+0x1b0>
 5ec:	01 00 00 00 	nop 
 5f0:	82 10 00 08 	mov  %o0, %g1
 5f4:	c4 0c 20 0a 	ldub  [ %l0 + 0xa ], %g2
 5f8:	82 10 80 01 	or  %g2, %g1, %g1
 5fc:	c2 2c 60 0a 	stb  %g1, [ %l1 + 0xa ]
 600:	e0 07 a0 44 	ld  [ %fp + 0x44 ], %l0
 604:	d0 07 a0 48 	ld  [ %fp + 0x48 ], %o0
 608:	92 10 20 01 	mov  1, %o1
 60c:	40 00 00 00 	call  60c <raac_DecodeProgramConfigElement+0x1d4>
 610:	01 00 00 00 	nop 
 614:	82 10 00 08 	mov  %o0, %g1
 618:	83 28 60 04 	sll  %g1, 4, %g1
 61c:	c2 2c 20 0b 	stb  %g1, [ %l0 + 0xb ]
 620:	c2 07 a0 44 	ld  [ %fp + 0x44 ], %g1
 624:	c2 08 60 0b 	ldub  [ %g1 + 0xb ], %g1
 628:	82 08 60 ff 	and  %g1, 0xff, %g1
 62c:	80 a0 60 00 	cmp  %g1, 0
 630:	02 80 00 17 	be  68c <raac_DecodeProgramConfigElement+0x254>
 634:	01 00 00 00 	nop 
 638:	e2 07 a0 44 	ld  [ %fp + 0x44 ], %l1
 63c:	e0 07 a0 44 	ld  [ %fp + 0x44 ], %l0
 640:	d0 07 a0 48 	ld  [ %fp + 0x48 ], %o0
 644:	92 10 20 02 	mov  2, %o1
 648:	40 00 00 00 	call  648 <raac_DecodeProgramConfigElement+0x210>
 64c:	01 00 00 00 	nop 
 650:	82 10 00 08 	mov  %o0, %g1
 654:	82 00 40 01 	add  %g1, %g1, %g1
 658:	c4 0c 20 0b 	ldub  [ %l0 + 0xb ], %g2
 65c:	82 10 80 01 	or  %g2, %g1, %g1
 660:	c2 2c 60 0b 	stb  %g1, [ %l1 + 0xb ]
 664:	e2 07 a0 44 	ld  [ %fp + 0x44 ], %l1
 668:	e0 07 a0 44 	ld  [ %fp + 0x44 ], %l0
 66c:	d0 07 a0 48 	ld  [ %fp + 0x48 ], %o0
 670:	92 10 20 01 	mov  1, %o1
 674:	40 00 00 00 	call  674 <raac_DecodeProgramConfigElement+0x23c>
 678:	01 00 00 00 	nop 
 67c:	82 10 00 08 	mov  %o0, %g1
 680:	c4 0c 20 0b 	ldub  [ %l0 + 0xb ], %g2
 684:	82 10 80 01 	or  %g2, %g1, %g1
 688:	c2 2c 60 0b 	stb  %g1, [ %l1 + 0xb ]
 68c:	c0 27 bf f4 	clr  [ %fp + -12 ]
 690:	c2 07 a0 44 	ld  [ %fp + 0x44 ], %g1
 694:	c2 08 60 03 	ldub  [ %g1 + 3 ], %g1
 698:	84 08 60 ff 	and  %g1, 0xff, %g2
 69c:	c2 07 bf f4 	ld  [ %fp + -12 ], %g1
 6a0:	80 a0 40 02 	cmp  %g1, %g2
 6a4:	06 80 00 04 	bl  6b4 <raac_DecodeProgramConfigElement+0x27c>
 6a8:	01 00 00 00 	nop 
 6ac:	10 80 00 1f 	b  728 <raac_DecodeProgramConfigElement+0x2f0>
 6b0:	01 00 00 00 	nop 
 6b4:	c4 07 a0 44 	ld  [ %fp + 0x44 ], %g2
 6b8:	c2 07 bf f4 	ld  [ %fp + -12 ], %g1
 6bc:	a0 00 80 01 	add  %g2, %g1, %l0
 6c0:	d0 07 a0 48 	ld  [ %fp + 0x48 ], %o0
 6c4:	92 10 20 01 	mov  1, %o1
 6c8:	40 00 00 00 	call  6c8 <raac_DecodeProgramConfigElement+0x290>
 6cc:	01 00 00 00 	nop 
 6d0:	82 10 00 08 	mov  %o0, %g1
 6d4:	83 28 60 04 	sll  %g1, 4, %g1
 6d8:	c2 2c 20 0c 	stb  %g1, [ %l0 + 0xc ]
 6dc:	c4 07 a0 44 	ld  [ %fp + 0x44 ], %g2
 6e0:	c2 07 bf f4 	ld  [ %fp + -12 ], %g1
 6e4:	a2 00 80 01 	add  %g2, %g1, %l1
 6e8:	c4 07 a0 44 	ld  [ %fp + 0x44 ], %g2
 6ec:	c2 07 bf f4 	ld  [ %fp + -12 ], %g1
 6f0:	a0 00 80 01 	add  %g2, %g1, %l0
 6f4:	d0 07 a0 48 	ld  [ %fp + 0x48 ], %o0
 6f8:	92 10 20 04 	mov  4, %o1
 6fc:	40 00 00 00 	call  6fc <raac_DecodeProgramConfigElement+0x2c4>
 700:	01 00 00 00 	nop 
 704:	82 10 00 08 	mov  %o0, %g1
 708:	c4 0c 20 0c 	ldub  [ %l0 + 0xc ], %g2
 70c:	82 10 80 01 	or  %g2, %g1, %g1
 710:	c2 2c 60 0c 	stb  %g1, [ %l1 + 0xc ]
 714:	c2 07 bf f4 	ld  [ %fp + -12 ], %g1
 718:	82 00 60 01 	inc  %g1
 71c:	c2 27 bf f4 	st  %g1, [ %fp + -12 ]
 720:	10 bf ff dc 	b  690 <raac_DecodeProgramConfigElement+0x258>
 724:	01 00 00 00 	nop 
 728:	c0 27 bf f4 	clr  [ %fp + -12 ]
 72c:	c2 07 a0 44 	ld  [ %fp + 0x44 ], %g1
 730:	c2 08 60 04 	ldub  [ %g1 + 4 ], %g1
 734:	84 08 60 ff 	and  %g1, 0xff, %g2
 738:	c2 07 bf f4 	ld  [ %fp + -12 ], %g1
 73c:	80 a0 40 02 	cmp  %g1, %g2
 740:	06 80 00 04 	bl  750 <raac_DecodeProgramConfigElement+0x318>
 744:	01 00 00 00 	nop 
 748:	10 80 00 1f 	b  7c4 <raac_DecodeProgramConfigElement+0x38c>
 74c:	01 00 00 00 	nop 
 750:	c4 07 a0 44 	ld  [ %fp + 0x44 ], %g2
 754:	c2 07 bf f4 	ld  [ %fp + -12 ], %g1
 758:	a0 00 80 01 	add  %g2, %g1, %l0
 75c:	d0 07 a0 48 	ld  [ %fp + 0x48 ], %o0
 760:	92 10 20 01 	mov  1, %o1
 764:	40 00 00 00 	call  764 <raac_DecodeProgramConfigElement+0x32c>
 768:	01 00 00 00 	nop 
 76c:	82 10 00 08 	mov  %o0, %g1
 770:	83 28 60 04 	sll  %g1, 4, %g1
 774:	c2 2c 20 1b 	stb  %g1, [ %l0 + 0x1b ]
 778:	c4 07 a0 44 	ld  [ %fp + 0x44 ], %g2
 77c:	c2 07 bf f4 	ld  [ %fp + -12 ], %g1
 780:	a2 00 80 01 	add  %g2, %g1, %l1
 784:	c4 07 a0 44 	ld  [ %fp + 0x44 ], %g2
 788:	c2 07 bf f4 	ld  [ %fp + -12 ], %g1
 78c:	a0 00 80 01 	add  %g2, %g1, %l0
 790:	d0 07 a0 48 	ld  [ %fp + 0x48 ], %o0
 794:	92 10 20 04 	mov  4, %o1
 798:	40 00 00 00 	call  798 <raac_DecodeProgramConfigElement+0x360>
 79c:	01 00 00 00 	nop 
 7a0:	82 10 00 08 	mov  %o0, %g1
 7a4:	c4 0c 20 1b 	ldub  [ %l0 + 0x1b ], %g2
 7a8:	82 10 80 01 	or  %g2, %g1, %g1
 7ac:	c2 2c 60 1b 	stb  %g1, [ %l1 + 0x1b ]
 7b0:	c2 07 bf f4 	ld  [ %fp + -12 ], %g1
 7b4:	82 00 60 01 	inc  %g1
 7b8:	c2 27 bf f4 	st  %g1, [ %fp + -12 ]
 7bc:	10 bf ff dc 	b  72c <raac_DecodeProgramConfigElement+0x2f4>
 7c0:	01 00 00 00 	nop 
 7c4:	c0 27 bf f4 	clr  [ %fp + -12 ]
 7c8:	c2 07 a0 44 	ld  [ %fp + 0x44 ], %g1
 7cc:	c2 08 60 05 	ldub  [ %g1 + 5 ], %g1
 7d0:	84 08 60 ff 	and  %g1, 0xff, %g2
 7d4:	c2 07 bf f4 	ld  [ %fp + -12 ], %g1
 7d8:	80 a0 40 02 	cmp  %g1, %g2
 7dc:	06 80 00 04 	bl  7ec <raac_DecodeProgramConfigElement+0x3b4>
 7e0:	01 00 00 00 	nop 
 7e4:	10 80 00 1f 	b  860 <raac_DecodeProgramConfigElement+0x428>
 7e8:	01 00 00 00 	nop 
 7ec:	c4 07 a0 44 	ld  [ %fp + 0x44 ], %g2
 7f0:	c2 07 bf f4 	ld  [ %fp + -12 ], %g1
 7f4:	a0 00 80 01 	add  %g2, %g1, %l0
 7f8:	d0 07 a0 48 	ld  [ %fp + 0x48 ], %o0
 7fc:	92 10 20 01 	mov  1, %o1
 800:	40 00 00 00 	call  800 <raac_DecodeProgramConfigElement+0x3c8>
 804:	01 00 00 00 	nop 
 808:	82 10 00 08 	mov  %o0, %g1
 80c:	83 28 60 04 	sll  %g1, 4, %g1
 810:	c2 2c 20 2a 	stb  %g1, [ %l0 + 0x2a ]
 814:	c4 07 a0 44 	ld  [ %fp + 0x44 ], %g2
 818:	c2 07 bf f4 	ld  [ %fp + -12 ], %g1
 81c:	a2 00 80 01 	add  %g2, %g1, %l1
 820:	c4 07 a0 44 	ld  [ %fp + 0x44 ], %g2
 824:	c2 07 bf f4 	ld  [ %fp + -12 ], %g1
 828:	a0 00 80 01 	add  %g2, %g1, %l0
 82c:	d0 07 a0 48 	ld  [ %fp + 0x48 ], %o0
 830:	92 10 20 04 	mov  4, %o1
 834:	40 00 00 00 	call  834 <raac_DecodeProgramConfigElement+0x3fc>
 838:	01 00 00 00 	nop 
 83c:	82 10 00 08 	mov  %o0, %g1
 840:	c4 0c 20 2a 	ldub  [ %l0 + 0x2a ], %g2
 844:	82 10 80 01 	or  %g2, %g1, %g1
 848:	c2 2c 60 2a 	stb  %g1, [ %l1 + 0x2a ]
 84c:	c2 07 bf f4 	ld  [ %fp + -12 ], %g1
 850:	82 00 60 01 	inc  %g1
 854:	c2 27 bf f4 	st  %g1, [ %fp + -12 ]
 858:	10 bf ff dc 	b  7c8 <raac_DecodeProgramConfigElement+0x390>
 85c:	01 00 00 00 	nop 
 860:	c0 27 bf f4 	clr  [ %fp + -12 ]
 864:	c2 07 a0 44 	ld  [ %fp + 0x44 ], %g1
 868:	c2 08 60 06 	ldub  [ %g1 + 6 ], %g1
 86c:	84 08 60 ff 	and  %g1, 0xff, %g2
 870:	c2 07 bf f4 	ld  [ %fp + -12 ], %g1
 874:	80 a0 40 02 	cmp  %g1, %g2
 878:	06 80 00 04 	bl  888 <raac_DecodeProgramConfigElement+0x450>
 87c:	01 00 00 00 	nop 
 880:	10 80 00 10 	b  8c0 <raac_DecodeProgramConfigElement+0x488>
 884:	01 00 00 00 	nop 
 888:	c4 07 a0 44 	ld  [ %fp + 0x44 ], %g2
 88c:	c2 07 bf f4 	ld  [ %fp + -12 ], %g1
 890:	a0 00 80 01 	add  %g2, %g1, %l0
 894:	d0 07 a0 48 	ld  [ %fp + 0x48 ], %o0
 898:	92 10 20 04 	mov  4, %o1
 89c:	40 00 00 00 	call  89c <raac_DecodeProgramConfigElement+0x464>
 8a0:	01 00 00 00 	nop 
 8a4:	82 10 00 08 	mov  %o0, %g1
 8a8:	c2 2c 20 39 	stb  %g1, [ %l0 + 0x39 ]
 8ac:	c2 07 bf f4 	ld  [ %fp + -12 ], %g1
 8b0:	82 00 60 01 	inc  %g1
 8b4:	c2 27 bf f4 	st  %g1, [ %fp + -12 ]
 8b8:	10 bf ff eb 	b  864 <raac_DecodeProgramConfigElement+0x42c>
 8bc:	01 00 00 00 	nop 
 8c0:	c0 27 bf f4 	clr  [ %fp + -12 ]
 8c4:	c2 07 a0 44 	ld  [ %fp + 0x44 ], %g1
 8c8:	c2 08 60 07 	ldub  [ %g1 + 7 ], %g1
 8cc:	84 08 60 ff 	and  %g1, 0xff, %g2
 8d0:	c2 07 bf f4 	ld  [ %fp + -12 ], %g1
 8d4:	80 a0 40 02 	cmp  %g1, %g2
 8d8:	06 80 00 04 	bl  8e8 <raac_DecodeProgramConfigElement+0x4b0>
 8dc:	01 00 00 00 	nop 
 8e0:	10 80 00 10 	b  920 <raac_DecodeProgramConfigElement+0x4e8>
 8e4:	01 00 00 00 	nop 
 8e8:	c4 07 a0 44 	ld  [ %fp + 0x44 ], %g2
 8ec:	c2 07 bf f4 	ld  [ %fp + -12 ], %g1
 8f0:	a0 00 80 01 	add  %g2, %g1, %l0
 8f4:	d0 07 a0 48 	ld  [ %fp + 0x48 ], %o0
 8f8:	92 10 20 04 	mov  4, %o1
 8fc:	40 00 00 00 	call  8fc <raac_DecodeProgramConfigElement+0x4c4>
 900:	01 00 00 00 	nop 
 904:	82 10 00 08 	mov  %o0, %g1
 908:	c2 2c 20 3c 	stb  %g1, [ %l0 + 0x3c ]
 90c:	c2 07 bf f4 	ld  [ %fp + -12 ], %g1
 910:	82 00 60 01 	inc  %g1
 914:	c2 27 bf f4 	st  %g1, [ %fp + -12 ]
 918:	10 bf ff eb 	b  8c4 <raac_DecodeProgramConfigElement+0x48c>
 91c:	01 00 00 00 	nop 
 920:	c0 27 bf f4 	clr  [ %fp + -12 ]
 924:	c2 07 a0 44 	ld  [ %fp + 0x44 ], %g1
 928:	c2 08 60 08 	ldub  [ %g1 + 8 ], %g1
 92c:	84 08 60 ff 	and  %g1, 0xff, %g2
 930:	c2 07 bf f4 	ld  [ %fp + -12 ], %g1
 934:	80 a0 40 02 	cmp  %g1, %g2
 938:	06 80 00 04 	bl  948 <raac_DecodeProgramConfigElement+0x510>
 93c:	01 00 00 00 	nop 
 940:	10 80 00 1f 	b  9bc <raac_DecodeProgramConfigElement+0x584>
 944:	01 00 00 00 	nop 
 948:	c4 07 a0 44 	ld  [ %fp + 0x44 ], %g2
 94c:	c2 07 bf f4 	ld  [ %fp + -12 ], %g1
 950:	a0 00 80 01 	add  %g2, %g1, %l0
 954:	d0 07 a0 48 	ld  [ %fp + 0x48 ], %o0
 958:	92 10 20 01 	mov  1, %o1
 95c:	40 00 00 00 	call  95c <raac_DecodeProgramConfigElement+0x524>
 960:	01 00 00 00 	nop 
 964:	82 10 00 08 	mov  %o0, %g1
 968:	83 28 60 04 	sll  %g1, 4, %g1
 96c:	c2 2c 20 43 	stb  %g1, [ %l0 + 0x43 ]
 970:	c4 07 a0 44 	ld  [ %fp + 0x44 ], %g2
 974:	c2 07 bf f4 	ld  [ %fp + -12 ], %g1
 978:	a2 00 80 01 	add  %g2, %g1, %l1
 97c:	c4 07 a0 44 	ld  [ %fp + 0x44 ], %g2
 980:	c2 07 bf f4 	ld  [ %fp + -12 ], %g1
 984:	a0 00 80 01 	add  %g2, %g1, %l0
 988:	d0 07 a0 48 	ld  [ %fp + 0x48 ], %o0
 98c:	92 10 20 04 	mov  4, %o1
 990:	40 00 00 00 	call  990 <raac_DecodeProgramConfigElement+0x558>
 994:	01 00 00 00 	nop 
 998:	82 10 00 08 	mov  %o0, %g1
 99c:	c4 0c 20 43 	ldub  [ %l0 + 0x43 ], %g2
 9a0:	82 10 80 01 	or  %g2, %g1, %g1
 9a4:	c2 2c 60 43 	stb  %g1, [ %l1 + 0x43 ]
 9a8:	c2 07 bf f4 	ld  [ %fp + -12 ], %g1
 9ac:	82 00 60 01 	inc  %g1
 9b0:	c2 27 bf f4 	st  %g1, [ %fp + -12 ]
 9b4:	10 bf ff dc 	b  924 <raac_DecodeProgramConfigElement+0x4ec>
 9b8:	01 00 00 00 	nop 
 9bc:	d0 07 a0 48 	ld  [ %fp + 0x48 ], %o0
 9c0:	40 00 00 00 	call  9c0 <raac_DecodeProgramConfigElement+0x588>
 9c4:	01 00 00 00 	nop 
 9c8:	d0 07 a0 48 	ld  [ %fp + 0x48 ], %o0
 9cc:	92 10 20 08 	mov  8, %o1
 9d0:	40 00 00 00 	call  9d0 <raac_DecodeProgramConfigElement+0x598>
 9d4:	01 00 00 00 	nop 
 9d8:	d0 27 bf f4 	st  %o0, [ %fp + -12 ]
 9dc:	c2 07 bf f4 	ld  [ %fp + -12 ], %g1
 9e0:	82 00 7f ff 	add  %g1, -1, %g1
 9e4:	c2 27 bf f4 	st  %g1, [ %fp + -12 ]
 9e8:	80 a0 7f ff 	cmp  %g1, -1
 9ec:	12 80 00 04 	bne  9fc <raac_DecodeProgramConfigElement+0x5c4>
 9f0:	01 00 00 00 	nop 
 9f4:	10 80 00 08 	b  a14 <raac_DecodeProgramConfigElement+0x5dc>
 9f8:	01 00 00 00 	nop 
 9fc:	d0 07 a0 48 	ld  [ %fp + 0x48 ], %o0
 a00:	92 10 20 08 	mov  8, %o1
 a04:	40 00 00 00 	call  a04 <raac_DecodeProgramConfigElement+0x5cc>
 a08:	01 00 00 00 	nop 
 a0c:	10 bf ff f4 	b  9dc <raac_DecodeProgramConfigElement+0x5a4>
 a10:	01 00 00 00 	nop 
 a14:	82 10 20 00 	clr  %g1	! 0 <DecodeSingleChannelElement-0x20>
 a18:	b0 10 00 01 	mov  %g1, %i0
 a1c:	81 c7 e0 08 	ret 
 a20:	81 e8 00 00 	restore 

00000a24 <DecodeFillElement>:
 a24:	9d e3 bf 88 	save  %sp, -120, %sp
 a28:	f0 27 a0 44 	st  %i0, [ %fp + 0x44 ]
 a2c:	f2 27 a0 48 	st  %i1, [ %fp + 0x48 ]
 a30:	c2 07 a0 44 	ld  [ %fp + 0x44 ], %g1
 a34:	80 a0 60 00 	cmp  %g1, 0
 a38:	02 80 00 07 	be  a54 <DecodeFillElement+0x30>
 a3c:	01 00 00 00 	nop 
 a40:	c2 07 a0 44 	ld  [ %fp + 0x44 ], %g1
 a44:	c2 00 40 00 	ld  [ %g1 ], %g1
 a48:	80 a0 60 00 	cmp  %g1, 0
 a4c:	12 80 00 06 	bne  a64 <DecodeFillElement+0x40>
 a50:	01 00 00 00 	nop 
 a54:	82 10 3f ff 	mov  -1, %g1	! ffffffff <raac_DecodeNextElement+0xfffff48b>
 a58:	c2 27 bf e8 	st  %g1, [ %fp + -24 ]
 a5c:	10 80 00 41 	b  b60 <DecodeFillElement+0x13c>
 a60:	01 00 00 00 	nop 
 a64:	c2 07 a0 44 	ld  [ %fp + 0x44 ], %g1
 a68:	c2 00 40 00 	ld  [ %g1 ], %g1
 a6c:	c2 27 bf ec 	st  %g1, [ %fp + -20 ]
 a70:	d0 07 a0 48 	ld  [ %fp + 0x48 ], %o0
 a74:	92 10 20 04 	mov  4, %o1
 a78:	40 00 00 00 	call  a78 <DecodeFillElement+0x54>
 a7c:	01 00 00 00 	nop 
 a80:	82 10 00 08 	mov  %o0, %g1
 a84:	c2 27 bf f4 	st  %g1, [ %fp + -12 ]
 a88:	c2 07 bf f4 	ld  [ %fp + -12 ], %g1
 a8c:	80 a0 60 0f 	cmp  %g1, 0xf
 a90:	12 80 00 0b 	bne  abc <DecodeFillElement+0x98>
 a94:	01 00 00 00 	nop 
 a98:	d0 07 a0 48 	ld  [ %fp + 0x48 ], %o0
 a9c:	92 10 20 08 	mov  8, %o1
 aa0:	40 00 00 00 	call  aa0 <DecodeFillElement+0x7c>
 aa4:	01 00 00 00 	nop 
 aa8:	84 10 00 08 	mov  %o0, %g2
 aac:	c2 07 bf f4 	ld  [ %fp + -12 ], %g1
 ab0:	82 00 80 01 	add  %g2, %g1, %g1
 ab4:	82 00 7f ff 	add  %g1, -1, %g1
 ab8:	c2 27 bf f4 	st  %g1, [ %fp + -12 ]
 abc:	c4 07 bf ec 	ld  [ %fp + -20 ], %g2
 ac0:	c2 07 bf f4 	ld  [ %fp + -12 ], %g1
 ac4:	c2 20 a7 5c 	st  %g1, [ %g2 + 0x75c ]
 ac8:	c2 07 bf ec 	ld  [ %fp + -20 ], %g1
 acc:	82 00 67 60 	add  %g1, 0x760, %g1
 ad0:	c2 27 bf f0 	st  %g1, [ %fp + -16 ]
 ad4:	c2 07 bf f4 	ld  [ %fp + -12 ], %g1
 ad8:	82 00 7f ff 	add  %g1, -1, %g1
 adc:	c2 27 bf f4 	st  %g1, [ %fp + -12 ]
 ae0:	80 a0 7f ff 	cmp  %g1, -1
 ae4:	12 80 00 04 	bne  af4 <DecodeFillElement+0xd0>
 ae8:	01 00 00 00 	nop 
 aec:	10 80 00 0f 	b  b28 <DecodeFillElement+0x104>
 af0:	01 00 00 00 	nop 
 af4:	84 07 bf f0 	add  %fp, -16, %g2
 af8:	c2 00 80 00 	ld  [ %g2 ], %g1
 afc:	a0 10 00 01 	mov  %g1, %l0
 b00:	82 00 60 01 	inc  %g1
 b04:	c2 20 80 00 	st  %g1, [ %g2 ]
 b08:	d0 07 a0 48 	ld  [ %fp + 0x48 ], %o0
 b0c:	92 10 20 08 	mov  8, %o1
 b10:	40 00 00 00 	call  b10 <DecodeFillElement+0xec>
 b14:	01 00 00 00 	nop 
 b18:	82 10 00 08 	mov  %o0, %g1
 b1c:	c2 2c 00 00 	stb  %g1, [ %l0 ]
 b20:	10 bf ff ed 	b  ad4 <DecodeFillElement+0xb0>
 b24:	01 00 00 00 	nop 
 b28:	c4 07 a0 44 	ld  [ %fp + 0x44 ], %g2
 b2c:	82 10 3f ff 	mov  -1, %g1
 b30:	c2 20 a0 2c 	st  %g1, [ %g2 + 0x2c ]
 b34:	c2 07 a0 44 	ld  [ %fp + 0x44 ], %g1
 b38:	c0 20 60 20 	clr  [ %g1 + 0x20 ]
 b3c:	c4 07 a0 44 	ld  [ %fp + 0x44 ], %g2
 b40:	c2 07 bf ec 	ld  [ %fp + -20 ], %g1
 b44:	82 00 67 60 	add  %g1, 0x760, %g1
 b48:	c2 20 a0 18 	st  %g1, [ %g2 + 0x18 ]
 b4c:	c4 07 a0 44 	ld  [ %fp + 0x44 ], %g2
 b50:	c2 07 bf ec 	ld  [ %fp + -20 ], %g1
 b54:	c2 00 67 5c 	ld  [ %g1 + 0x75c ], %g1
 b58:	c2 20 a0 1c 	st  %g1, [ %g2 + 0x1c ]
 b5c:	c0 27 bf e8 	clr  [ %fp + -24 ]
 b60:	f0 07 bf e8 	ld  [ %fp + -24 ], %i0
 b64:	81 c7 e0 08 	ret 
 b68:	81 e8 00 00 	restore 
 b6c:	81 c3 e0 08 	retl 
 b70:	ae 03 c0 17 	add  %o7, %l7, %l7

00000b74 <raac_DecodeNextElement>:
 b74:	9d e3 bf 70 	save  %sp, -144, %sp
 b78:	2f 00 00 00 	sethi  %hi(0), %l7
 b7c:	7f ff ff fc 	call  b6c <DecodeFillElement+0x148>
 b80:	ae 05 e0 00 	add  %l7, 0, %l7	! 0 <DecodeSingleChannelElement-0x20>
 b84:	f0 27 a0 44 	st  %i0, [ %fp + 0x44 ]
 b88:	f2 27 a0 48 	st  %i1, [ %fp + 0x48 ]
 b8c:	f4 27 a0 4c 	st  %i2, [ %fp + 0x4c ]
 b90:	f6 27 a0 50 	st  %i3, [ %fp + 0x50 ]
 b94:	c2 07 a0 44 	ld  [ %fp + 0x44 ], %g1
 b98:	80 a0 60 00 	cmp  %g1, 0
 b9c:	02 80 00 07 	be  bb8 <raac_DecodeNextElement+0x44>
 ba0:	01 00 00 00 	nop 
 ba4:	c2 07 a0 44 	ld  [ %fp + 0x44 ], %g1
 ba8:	c2 00 40 00 	ld  [ %g1 ], %g1
 bac:	80 a0 60 00 	cmp  %g1, 0
 bb0:	12 80 00 06 	bne  bc8 <raac_DecodeNextElement+0x54>
 bb4:	01 00 00 00 	nop 
 bb8:	82 10 3f fe 	mov  -2, %g1	! fffffffe <raac_DecodeNextElement+0xfffff48a>
 bbc:	c2 27 bf d4 	st  %g1, [ %fp + -44 ]
 bc0:	10 80 00 a2 	b  e48 <raac_DecodeNextElement+0x2d4>
 bc4:	01 00 00 00 	nop 
 bc8:	c2 07 a0 44 	ld  [ %fp + 0x44 ], %g1
 bcc:	c2 00 40 00 	ld  [ %g1 ], %g1
 bd0:	c2 27 bf ec 	st  %g1, [ %fp + -20 ]
 bd4:	86 07 bf d8 	add  %fp, -40, %g3
 bd8:	c2 07 a0 50 	ld  [ %fp + 0x50 ], %g1
 bdc:	c2 00 40 00 	ld  [ %g1 ], %g1
 be0:	82 00 60 07 	add  %g1, 7, %g1
 be4:	83 38 60 03 	sra  %g1, 3, %g1
 be8:	c4 07 a0 48 	ld  [ %fp + 0x48 ], %g2
 bec:	90 10 00 03 	mov  %g3, %o0
 bf0:	92 10 00 01 	mov  %g1, %o1
 bf4:	d4 00 80 00 	ld  [ %g2 ], %o2
 bf8:	40 00 00 00 	call  bf8 <raac_DecodeNextElement+0x84>
 bfc:	01 00 00 00 	nop 
 c00:	82 07 bf d8 	add  %fp, -40, %g1
 c04:	c4 07 a0 4c 	ld  [ %fp + 0x4c ], %g2
 c08:	90 10 00 01 	mov  %g1, %o0
 c0c:	d2 00 80 00 	ld  [ %g2 ], %o1
 c10:	40 00 00 00 	call  c10 <raac_DecodeNextElement+0x9c>
 c14:	01 00 00 00 	nop 
 c18:	c4 07 a0 44 	ld  [ %fp + 0x44 ], %g2
 c1c:	c2 07 a0 44 	ld  [ %fp + 0x44 ], %g1
 c20:	c2 00 60 28 	ld  [ %g1 + 0x28 ], %g1
 c24:	c2 20 a0 24 	st  %g1, [ %g2 + 0x24 ]
 c28:	e0 07 a0 44 	ld  [ %fp + 0x44 ], %l0
 c2c:	82 07 bf d8 	add  %fp, -40, %g1
 c30:	90 10 00 01 	mov  %g1, %o0
 c34:	92 10 20 03 	mov  3, %o1
 c38:	40 00 00 00 	call  c38 <raac_DecodeNextElement+0xc4>
 c3c:	01 00 00 00 	nop 
 c40:	d0 24 20 28 	st  %o0, [ %l0 + 0x28 ]
 c44:	c2 07 bf ec 	ld  [ %fp + -20 ], %g1
 c48:	c0 20 68 f0 	clr  [ %g1 + 0x8f0 ]
 c4c:	c0 27 bf f4 	clr  [ %fp + -12 ]
 c50:	c4 07 a0 44 	ld  [ %fp + 0x44 ], %g2
 c54:	c4 27 bf d0 	st  %g2, [ %fp + -48 ]
 c58:	c4 07 bf d0 	ld  [ %fp + -48 ], %g2
 c5c:	c2 00 a0 28 	ld  [ %g2 + 0x28 ], %g1
 c60:	80 a0 60 07 	cmp  %g1, 7
 c64:	18 80 00 46 	bgu  d7c <raac_DecodeNextElement+0x208>
 c68:	01 00 00 00 	nop 
 c6c:	c4 07 bf d0 	ld  [ %fp + -48 ], %g2
 c70:	c2 00 a0 28 	ld  [ %g2 + 0x28 ], %g1
 c74:	85 28 60 02 	sll  %g1, 2, %g2
 c78:	03 00 00 00 	sethi  %hi(0), %g1
 c7c:	82 10 60 00 	mov  %g1, %g1	! 0 <DecodeSingleChannelElement-0x20>
 c80:	82 25 c0 01 	sub  %l7, %g1, %g1
 c84:	82 00 80 01 	add  %g2, %g1, %g1
 c88:	c4 00 40 00 	ld  [ %g1 ], %g2
 c8c:	03 00 00 00 	sethi  %hi(0), %g1
 c90:	82 10 60 00 	mov  %g1, %g1	! 0 <DecodeSingleChannelElement-0x20>
 c94:	82 25 c0 01 	sub  %l7, %g1, %g1
 c98:	82 00 80 01 	add  %g2, %g1, %g1
 c9c:	81 c0 40 00 	jmp  %g1
 ca0:	01 00 00 00 	nop 
 ca4:	82 07 bf d8 	add  %fp, -40, %g1
 ca8:	d0 07 a0 44 	ld  [ %fp + 0x44 ], %o0
 cac:	92 10 00 01 	mov  %g1, %o1
 cb0:	7f ff fc dc 	call  20 <DecodeSingleChannelElement>
 cb4:	01 00 00 00 	nop 
 cb8:	82 10 00 08 	mov  %o0, %g1
 cbc:	c2 27 bf f4 	st  %g1, [ %fp + -12 ]
 cc0:	10 80 00 2f 	b  d7c <raac_DecodeNextElement+0x208>
 cc4:	01 00 00 00 	nop 
 cc8:	82 07 bf d8 	add  %fp, -40, %g1
 ccc:	d0 07 a0 44 	ld  [ %fp + 0x44 ], %o0
 cd0:	92 10 00 01 	mov  %g1, %o1
 cd4:	7f ff fc ed 	call  88 <DecodeChannelPairElement>
 cd8:	01 00 00 00 	nop 
 cdc:	82 10 00 08 	mov  %o0, %g1
 ce0:	c2 27 bf f4 	st  %g1, [ %fp + -12 ]
 ce4:	10 80 00 26 	b  d7c <raac_DecodeNextElement+0x208>
 ce8:	01 00 00 00 	nop 
 cec:	82 07 bf d8 	add  %fp, -40, %g1
 cf0:	d0 07 a0 44 	ld  [ %fp + 0x44 ], %o0
 cf4:	92 10 00 01 	mov  %g1, %o1
 cf8:	7f ff fd 5f 	call  274 <DecodeLFEChannelElement>
 cfc:	01 00 00 00 	nop 
 d00:	82 10 00 08 	mov  %o0, %g1
 d04:	c2 27 bf f4 	st  %g1, [ %fp + -12 ]
 d08:	10 80 00 1d 	b  d7c <raac_DecodeNextElement+0x208>
 d0c:	01 00 00 00 	nop 
 d10:	82 07 bf d8 	add  %fp, -40, %g1
 d14:	d0 07 a0 44 	ld  [ %fp + 0x44 ], %o0
 d18:	92 10 00 01 	mov  %g1, %o1
 d1c:	7f ff fd 70 	call  2dc <DecodeDataStreamElement>
 d20:	01 00 00 00 	nop 
 d24:	82 10 00 08 	mov  %o0, %g1
 d28:	c2 27 bf f4 	st  %g1, [ %fp + -12 ]
 d2c:	10 80 00 14 	b  d7c <raac_DecodeNextElement+0x208>
 d30:	01 00 00 00 	nop 
 d34:	c2 07 bf ec 	ld  [ %fp + -20 ], %g1
 d38:	82 00 60 38 	add  %g1, 0x38, %g1
 d3c:	84 07 bf d8 	add  %fp, -40, %g2
 d40:	90 10 00 01 	mov  %g1, %o0
 d44:	92 10 00 02 	mov  %g2, %o1
 d48:	40 00 00 00 	call  d48 <raac_DecodeNextElement+0x1d4>
 d4c:	01 00 00 00 	nop 
 d50:	82 10 00 08 	mov  %o0, %g1
 d54:	c2 27 bf f4 	st  %g1, [ %fp + -12 ]
 d58:	10 80 00 09 	b  d7c <raac_DecodeNextElement+0x208>
 d5c:	01 00 00 00 	nop 
 d60:	82 07 bf d8 	add  %fp, -40, %g1
 d64:	d0 07 a0 44 	ld  [ %fp + 0x44 ], %o0
 d68:	92 10 00 01 	mov  %g1, %o1
 d6c:	7f ff ff 2e 	call  a24 <DecodeFillElement>
 d70:	01 00 00 00 	nop 
 d74:	82 10 00 08 	mov  %o0, %g1
 d78:	c2 27 bf f4 	st  %g1, [ %fp + -12 ]
 d7c:	c2 07 bf f4 	ld  [ %fp + -12 ], %g1
 d80:	80 a0 60 00 	cmp  %g1, 0
 d84:	02 80 00 06 	be  d9c <raac_DecodeNextElement+0x228>
 d88:	01 00 00 00 	nop 
 d8c:	82 10 3f f8 	mov  -8, %g1	! fffffff8 <raac_DecodeNextElement+0xfffff484>
 d90:	c2 27 bf d4 	st  %g1, [ %fp + -44 ]
 d94:	10 80 00 2d 	b  e48 <raac_DecodeNextElement+0x2d4>
 d98:	01 00 00 00 	nop 
 d9c:	82 07 bf d8 	add  %fp, -40, %g1
 da0:	c4 07 a0 48 	ld  [ %fp + 0x48 ], %g2
 da4:	c6 07 a0 4c 	ld  [ %fp + 0x4c ], %g3
 da8:	90 10 00 01 	mov  %g1, %o0
 dac:	d2 00 80 00 	ld  [ %g2 ], %o1
 db0:	d4 00 c0 00 	ld  [ %g3 ], %o2
 db4:	40 00 00 00 	call  db4 <raac_DecodeNextElement+0x240>
 db8:	01 00 00 00 	nop 
 dbc:	82 10 00 08 	mov  %o0, %g1
 dc0:	c2 27 bf f0 	st  %g1, [ %fp + -16 ]
 dc4:	c8 07 a0 48 	ld  [ %fp + 0x48 ], %g4
 dc8:	c6 07 a0 48 	ld  [ %fp + 0x48 ], %g3
 dcc:	c2 07 a0 4c 	ld  [ %fp + 0x4c ], %g1
 dd0:	c4 07 bf f0 	ld  [ %fp + -16 ], %g2
 dd4:	c2 00 40 00 	ld  [ %g1 ], %g1
 dd8:	82 00 80 01 	add  %g2, %g1, %g1
 ddc:	85 38 60 03 	sra  %g1, 3, %g2
 de0:	c2 00 c0 00 	ld  [ %g3 ], %g1
 de4:	82 00 40 02 	add  %g1, %g2, %g1
 de8:	c2 21 00 00 	st  %g1, [ %g4 ]
 dec:	c6 07 a0 4c 	ld  [ %fp + 0x4c ], %g3
 df0:	c2 07 a0 4c 	ld  [ %fp + 0x4c ], %g1
 df4:	c4 07 bf f0 	ld  [ %fp + -16 ], %g2
 df8:	c2 00 40 00 	ld  [ %g1 ], %g1
 dfc:	82 00 80 01 	add  %g2, %g1, %g1
 e00:	82 08 60 07 	and  %g1, 7, %g1
 e04:	c2 20 c0 00 	st  %g1, [ %g3 ]
 e08:	c6 07 a0 50 	ld  [ %fp + 0x50 ], %g3
 e0c:	c2 07 a0 50 	ld  [ %fp + 0x50 ], %g1
 e10:	c4 00 40 00 	ld  [ %g1 ], %g2
 e14:	c2 07 bf f0 	ld  [ %fp + -16 ], %g1
 e18:	82 20 80 01 	sub  %g2, %g1, %g1
 e1c:	c2 20 c0 00 	st  %g1, [ %g3 ]
 e20:	c2 07 a0 50 	ld  [ %fp + 0x50 ], %g1
 e24:	c2 00 40 00 	ld  [ %g1 ], %g1
 e28:	80 a0 60 00 	cmp  %g1, 0
 e2c:	16 80 00 06 	bge  e44 <raac_DecodeNextElement+0x2d0>
 e30:	01 00 00 00 	nop 
 e34:	84 10 3f ff 	mov  -1, %g2	! ffffffff <raac_DecodeNextElement+0xfffff48b>
 e38:	c4 27 bf d4 	st  %g2, [ %fp + -44 ]
 e3c:	10 80 00 03 	b  e48 <raac_DecodeNextElement+0x2d4>
 e40:	01 00 00 00 	nop 
 e44:	c0 27 bf d4 	clr  [ %fp + -44 ]
 e48:	f0 07 bf d4 	ld  [ %fp + -44 ], %i0
 e4c:	81 c7 e0 08 	ret 
 e50:	81 e8 00 00 	restore 
