
dequant.o:     file format elf32-sparc
dequant.o

Disassembly of section .text:

00000000 <DequantBlock-0x8>:
   0:	81 c3 e0 08 	retl 
   4:	ae 03 c0 17 	add  %o7, %l7, %l7

00000008 <DequantBlock>:
   8:	9d e3 bf 58 	save  %sp, -168, %sp
   c:	2f 00 00 00 	sethi  %hi(0), %l7
  10:	7f ff ff fc 	call  0 <DequantBlock-0x8>
  14:	ae 05 e0 00 	add  %l7, 0, %l7	! 0 <DequantBlock-0x8>
  18:	f0 27 a0 44 	st  %i0, [ %fp + 0x44 ]
  1c:	f2 27 a0 48 	st  %i1, [ %fp + 0x48 ]
  20:	f4 27 a0 4c 	st  %i2, [ %fp + 0x4c ]
  24:	c2 07 a0 48 	ld  [ %fp + 0x48 ], %g1
  28:	80 a0 60 00 	cmp  %g1, 0
  2c:	14 80 00 05 	bg  40 <DequantBlock+0x38>
  30:	01 00 00 00 	nop 
  34:	c0 27 bf bc 	clr  [ %fp + -68 ]
  38:	10 80 01 76 	b  610 <DequantBlock+0x608>
  3c:	01 00 00 00 	nop 
  40:	c2 07 a0 4c 	ld  [ %fp + 0x4c ], %g1
  44:	82 00 7f 9c 	add  %g1, -100, %g1
  48:	c2 27 a0 4c 	st  %g1, [ %fp + 0x4c ]
  4c:	c2 07 a0 4c 	ld  [ %fp + 0x4c ], %g1
  50:	82 08 60 03 	and  %g1, 3, %g1
  54:	85 28 60 06 	sll  %g1, 6, %g2
  58:	03 00 00 00 	sethi  %hi(0), %g1
  5c:	82 10 60 00 	mov  %g1, %g1	! 0 <DequantBlock-0x8>
  60:	c2 05 c0 01 	ld  [ %l7 + %g1 ], %g1
  64:	82 00 40 02 	add  %g1, %g2, %g1
  68:	c2 27 bf c4 	st  %g1, [ %fp + -60 ]
  6c:	03 00 00 00 	sethi  %hi(0), %g1
  70:	82 10 60 00 	mov  %g1, %g1	! 0 <DequantBlock-0x8>
  74:	c4 05 c0 01 	ld  [ %l7 + %g1 ], %g2
  78:	c2 07 a0 4c 	ld  [ %fp + 0x4c ], %g1
  7c:	82 08 60 03 	and  %g1, 3, %g1
  80:	83 28 60 02 	sll  %g1, 2, %g1
  84:	c2 00 80 01 	ld  [ %g2 + %g1 ], %g1
  88:	c2 27 bf f0 	st  %g1, [ %fp + -16 ]
  8c:	c2 07 a0 4c 	ld  [ %fp + 0x4c ], %g1
  90:	83 38 60 02 	sra  %g1, 2, %g1
  94:	82 00 60 05 	add  %g1, 5, %g1
  98:	c2 27 bf ec 	st  %g1, [ %fp + -20 ]
  9c:	84 10 20 1c 	mov  0x1c, %g2
  a0:	c2 07 bf ec 	ld  [ %fp + -20 ], %g1
  a4:	82 20 80 01 	sub  %g2, %g1, %g1
  a8:	c2 27 bf dc 	st  %g1, [ %fp + -36 ]
  ac:	c2 07 bf dc 	ld  [ %fp + -36 ], %g1
  b0:	80 a0 60 1f 	cmp  %g1, 0x1f
  b4:	04 80 00 08 	ble  d4 <DequantBlock+0xcc>
  b8:	01 00 00 00 	nop 
  bc:	c0 27 bf d4 	clr  [ %fp + -44 ]
  c0:	c0 27 bf d0 	clr  [ %fp + -48 ]
  c4:	c0 27 bf cc 	clr  [ %fp + -52 ]
  c8:	c0 27 bf c8 	clr  [ %fp + -56 ]
  cc:	10 80 00 4b 	b  1f8 <DequantBlock+0x1f0>
  d0:	01 00 00 00 	nop 
  d4:	c2 07 bf dc 	ld  [ %fp + -36 ], %g1
  d8:	80 a0 60 00 	cmp  %g1, 0
  dc:	14 80 00 34 	bg  1ac <DequantBlock+0x1a4>
  e0:	01 00 00 00 	nop 
  e4:	c2 07 bf dc 	ld  [ %fp + -36 ], %g1
  e8:	82 20 00 01 	neg  %g1
  ec:	c2 27 bf dc 	st  %g1, [ %fp + -36 ]
  f0:	c2 07 bf dc 	ld  [ %fp + -36 ], %g1
  f4:	80 a0 60 1f 	cmp  %g1, 0x1f
  f8:	04 80 00 04 	ble  108 <DequantBlock+0x100>
  fc:	01 00 00 00 	nop 
 100:	82 10 20 1f 	mov  0x1f, %g1	! 1f <DequantBlock+0x17>
 104:	c2 27 bf dc 	st  %g1, [ %fp + -36 ]
 108:	c0 27 bf e8 	clr  [ %fp + -24 ]
 10c:	c2 07 bf e8 	ld  [ %fp + -24 ], %g1
 110:	80 a0 60 03 	cmp  %g1, 3
 114:	04 80 00 04 	ble  124 <DequantBlock+0x11c>
 118:	01 00 00 00 	nop 
 11c:	10 80 00 37 	b  1f8 <DequantBlock+0x1f0>
 120:	01 00 00 00 	nop 
 124:	c2 07 bf e8 	ld  [ %fp + -24 ], %g1
 128:	85 28 60 02 	sll  %g1, 2, %g2
 12c:	c2 07 bf c4 	ld  [ %fp + -60 ], %g1
 130:	82 00 80 01 	add  %g2, %g1, %g1
 134:	c2 00 40 00 	ld  [ %g1 ], %g1
 138:	c2 27 bf e4 	st  %g1, [ %fp + -28 ]
 13c:	03 1f ff ff 	sethi  %hi(0x7ffffc00), %g1
 140:	84 10 63 ff 	or  %g1, 0x3ff, %g2	! 7fffffff <CLZ+0x7ffff447>
 144:	c2 07 bf dc 	ld  [ %fp + -36 ], %g1
 148:	85 38 80 01 	sra  %g2, %g1, %g2
 14c:	c2 07 bf e4 	ld  [ %fp + -28 ], %g1
 150:	80 a0 40 02 	cmp  %g1, %g2
 154:	04 80 00 07 	ble  170 <DequantBlock+0x168>
 158:	01 00 00 00 	nop 
 15c:	03 1f ff ff 	sethi  %hi(0x7ffffc00), %g1
 160:	82 10 63 ff 	or  %g1, 0x3ff, %g1	! 7fffffff <CLZ+0x7ffff447>
 164:	c2 27 bf e4 	st  %g1, [ %fp + -28 ]
 168:	10 80 00 06 	b  180 <DequantBlock+0x178>
 16c:	01 00 00 00 	nop 
 170:	c2 07 bf e4 	ld  [ %fp + -28 ], %g1
 174:	c4 07 bf dc 	ld  [ %fp + -36 ], %g2
 178:	83 28 40 02 	sll  %g1, %g2, %g1
 17c:	c2 27 bf e4 	st  %g1, [ %fp + -28 ]
 180:	c2 07 bf e8 	ld  [ %fp + -24 ], %g1
 184:	85 28 60 02 	sll  %g1, 2, %g2
 188:	82 07 bf f8 	add  %fp, -8, %g1
 18c:	84 00 80 01 	add  %g2, %g1, %g2
 190:	c2 07 bf e4 	ld  [ %fp + -28 ], %g1
 194:	c2 20 bf d0 	st  %g1, [ %g2 + -48 ]
 198:	c2 07 bf e8 	ld  [ %fp + -24 ], %g1
 19c:	82 00 60 01 	inc  %g1
 1a0:	c2 27 bf e8 	st  %g1, [ %fp + -24 ]
 1a4:	10 bf ff da 	b  10c <DequantBlock+0x104>
 1a8:	01 00 00 00 	nop 
 1ac:	c0 27 bf c8 	clr  [ %fp + -56 ]
 1b0:	c2 07 bf c4 	ld  [ %fp + -60 ], %g1
 1b4:	82 00 60 04 	add  %g1, 4, %g1
 1b8:	c4 00 40 00 	ld  [ %g1 ], %g2
 1bc:	c2 07 bf dc 	ld  [ %fp + -36 ], %g1
 1c0:	83 38 80 01 	sra  %g2, %g1, %g1
 1c4:	c2 27 bf cc 	st  %g1, [ %fp + -52 ]
 1c8:	c2 07 bf c4 	ld  [ %fp + -60 ], %g1
 1cc:	82 00 60 08 	add  %g1, 8, %g1
 1d0:	c4 00 40 00 	ld  [ %g1 ], %g2
 1d4:	c2 07 bf dc 	ld  [ %fp + -36 ], %g1
 1d8:	83 38 80 01 	sra  %g2, %g1, %g1
 1dc:	c2 27 bf d0 	st  %g1, [ %fp + -48 ]
 1e0:	c2 07 bf c4 	ld  [ %fp + -60 ], %g1
 1e4:	82 00 60 0c 	add  %g1, 0xc, %g1
 1e8:	c4 00 40 00 	ld  [ %g1 ], %g2
 1ec:	c2 07 bf dc 	ld  [ %fp + -36 ], %g1
 1f0:	83 38 80 01 	sra  %g2, %g1, %g1
 1f4:	c2 27 bf d4 	st  %g1, [ %fp + -44 ]
 1f8:	c0 27 bf e0 	clr  [ %fp + -32 ]
 1fc:	c2 07 a0 44 	ld  [ %fp + 0x44 ], %g1
 200:	c2 00 40 00 	ld  [ %g1 ], %g1
 204:	c2 27 bf f4 	st  %g1, [ %fp + -12 ]
 208:	d0 07 bf f4 	ld  [ %fp + -12 ], %o0
 20c:	40 00 02 5a 	call  b74 <FASTABS>
 210:	01 00 00 00 	nop 
 214:	82 10 00 08 	mov  %o0, %g1
 218:	c2 27 bf e8 	st  %g1, [ %fp + -24 ]
 21c:	c2 07 bf e8 	ld  [ %fp + -24 ], %g1
 220:	80 a0 60 03 	cmp  %g1, 3
 224:	14 80 00 0a 	bg  24c <DequantBlock+0x244>
 228:	01 00 00 00 	nop 
 22c:	c2 07 bf e8 	ld  [ %fp + -24 ], %g1
 230:	85 28 60 02 	sll  %g1, 2, %g2
 234:	82 07 bf f8 	add  %fp, -8, %g1
 238:	82 00 80 01 	add  %g2, %g1, %g1
 23c:	c2 00 7f d0 	ld  [ %g1 + -48 ], %g1
 240:	c2 27 bf e4 	st  %g1, [ %fp + -28 ]
 244:	10 80 00 d6 	b  59c <DequantBlock+0x594>
 248:	01 00 00 00 	nop 
 24c:	c2 07 bf e8 	ld  [ %fp + -24 ], %g1
 250:	80 a0 60 0f 	cmp  %g1, 0xf
 254:	14 80 00 0e 	bg  28c <DequantBlock+0x284>
 258:	01 00 00 00 	nop 
 25c:	c2 07 bf e8 	ld  [ %fp + -24 ], %g1
 260:	85 28 60 02 	sll  %g1, 2, %g2
 264:	c2 07 bf c4 	ld  [ %fp + -60 ], %g1
 268:	82 00 80 01 	add  %g2, %g1, %g1
 26c:	c2 00 40 00 	ld  [ %g1 ], %g1
 270:	c2 27 bf e4 	st  %g1, [ %fp + -28 ]
 274:	84 10 20 19 	mov  0x19, %g2
 278:	c2 07 bf ec 	ld  [ %fp + -20 ], %g1
 27c:	82 20 80 01 	sub  %g2, %g1, %g1
 280:	c2 27 bf dc 	st  %g1, [ %fp + -36 ]
 284:	10 80 00 9c 	b  4f4 <DequantBlock+0x4ec>
 288:	01 00 00 00 	nop 
 28c:	c2 07 bf e8 	ld  [ %fp + -24 ], %g1
 290:	80 a0 60 3f 	cmp  %g1, 0x3f
 294:	14 80 00 16 	bg  2ec <DequantBlock+0x2e4>
 298:	01 00 00 00 	nop 
 29c:	03 00 00 00 	sethi  %hi(0), %g1
 2a0:	82 10 60 00 	mov  %g1, %g1	! 0 <DequantBlock-0x8>
 2a4:	c4 05 c0 01 	ld  [ %l7 + %g1 ], %g2
 2a8:	c2 07 bf e8 	ld  [ %fp + -24 ], %g1
 2ac:	83 28 60 02 	sll  %g1, 2, %g1
 2b0:	82 00 40 02 	add  %g1, %g2, %g1
 2b4:	c2 00 7f c0 	ld  [ %g1 + -64 ], %g1
 2b8:	c2 27 bf e4 	st  %g1, [ %fp + -28 ]
 2bc:	84 10 20 15 	mov  0x15, %g2
 2c0:	c2 07 bf ec 	ld  [ %fp + -20 ], %g1
 2c4:	82 20 80 01 	sub  %g2, %g1, %g1
 2c8:	c2 27 bf dc 	st  %g1, [ %fp + -36 ]
 2cc:	d0 07 bf e4 	ld  [ %fp + -28 ], %o0
 2d0:	d2 07 bf f0 	ld  [ %fp + -16 ], %o1
 2d4:	40 00 02 0e 	call  b0c <MULSHIFT32>
 2d8:	01 00 00 00 	nop 
 2dc:	82 10 00 08 	mov  %o0, %g1
 2e0:	c2 27 bf e4 	st  %g1, [ %fp + -28 ]
 2e4:	10 80 00 84 	b  4f4 <DequantBlock+0x4ec>
 2e8:	01 00 00 00 	nop 
 2ec:	c2 07 bf e8 	ld  [ %fp + -24 ], %g1
 2f0:	83 28 60 11 	sll  %g1, 0x11, %g1
 2f4:	c2 27 bf e8 	st  %g1, [ %fp + -24 ]
 2f8:	c0 27 bf dc 	clr  [ %fp + -36 ]
 2fc:	c4 07 bf e8 	ld  [ %fp + -24 ], %g2
 300:	03 01 ff ff 	sethi  %hi(0x7fffc00), %g1
 304:	82 10 63 ff 	or  %g1, 0x3ff, %g1	! 7ffffff <CLZ+0x7fff447>
 308:	80 a0 80 01 	cmp  %g2, %g1
 30c:	14 80 00 08 	bg  32c <DequantBlock+0x324>
 310:	01 00 00 00 	nop 
 314:	c2 07 bf e8 	ld  [ %fp + -24 ], %g1
 318:	83 28 60 04 	sll  %g1, 4, %g1
 31c:	c2 27 bf e8 	st  %g1, [ %fp + -24 ]
 320:	c2 07 bf dc 	ld  [ %fp + -36 ], %g1
 324:	82 00 60 04 	add  %g1, 4, %g1
 328:	c2 27 bf dc 	st  %g1, [ %fp + -36 ]
 32c:	c2 07 bf e8 	ld  [ %fp + -24 ], %g1
 330:	05 07 ff ff 	sethi  %hi(0x1ffffc00), %g2
 334:	84 10 a3 ff 	or  %g2, 0x3ff, %g2	! 1fffffff <CLZ+0x1ffff447>
 338:	80 a0 40 02 	cmp  %g1, %g2
 33c:	14 80 00 08 	bg  35c <DequantBlock+0x354>
 340:	01 00 00 00 	nop 
 344:	c2 07 bf e8 	ld  [ %fp + -24 ], %g1
 348:	83 28 60 02 	sll  %g1, 2, %g1
 34c:	c2 27 bf e8 	st  %g1, [ %fp + -24 ]
 350:	c2 07 bf dc 	ld  [ %fp + -36 ], %g1
 354:	82 00 60 02 	add  %g1, 2, %g1
 358:	c2 27 bf dc 	st  %g1, [ %fp + -36 ]
 35c:	c2 07 bf e8 	ld  [ %fp + -24 ], %g1
 360:	05 0f ff ff 	sethi  %hi(0x3ffffc00), %g2
 364:	84 10 a3 ff 	or  %g2, 0x3ff, %g2	! 3fffffff <CLZ+0x3ffff447>
 368:	80 a0 40 02 	cmp  %g1, %g2
 36c:	14 80 00 08 	bg  38c <DequantBlock+0x384>
 370:	01 00 00 00 	nop 
 374:	c2 07 bf e8 	ld  [ %fp + -24 ], %g1
 378:	82 00 40 01 	add  %g1, %g1, %g1
 37c:	c2 27 bf e8 	st  %g1, [ %fp + -24 ]
 380:	c2 07 bf dc 	ld  [ %fp + -36 ], %g1
 384:	82 00 60 01 	inc  %g1
 388:	c2 27 bf dc 	st  %g1, [ %fp + -36 ]
 38c:	c2 07 bf e8 	ld  [ %fp + -24 ], %g1
 390:	05 16 a0 9e 	sethi  %hi(0x5a827800), %g2
 394:	84 10 a1 99 	or  %g2, 0x199, %g2	! 5a827999 <CLZ+0x5a826de1>
 398:	80 a0 40 02 	cmp  %g1, %g2
 39c:	14 80 00 08 	bg  3bc <DequantBlock+0x3b4>
 3a0:	01 00 00 00 	nop 
 3a4:	03 00 00 00 	sethi  %hi(0), %g1
 3a8:	82 10 60 00 	mov  %g1, %g1	! 0 <DequantBlock-0x8>
 3ac:	c2 05 c0 01 	ld  [ %l7 + %g1 ], %g1
 3b0:	c2 27 bf b8 	st  %g1, [ %fp + -72 ]
 3b4:	10 80 00 06 	b  3cc <DequantBlock+0x3c4>
 3b8:	01 00 00 00 	nop 
 3bc:	03 00 00 00 	sethi  %hi(0), %g1
 3c0:	82 10 60 00 	mov  %g1, %g1	! 0 <DequantBlock-0x8>
 3c4:	c2 05 c0 01 	ld  [ %l7 + %g1 ], %g1
 3c8:	c2 27 bf b8 	st  %g1, [ %fp + -72 ]
 3cc:	c2 07 bf b8 	ld  [ %fp + -72 ], %g1
 3d0:	c2 27 bf c0 	st  %g1, [ %fp + -64 ]
 3d4:	c2 07 bf c0 	ld  [ %fp + -64 ], %g1
 3d8:	c2 00 40 00 	ld  [ %g1 ], %g1
 3dc:	c2 27 bf e4 	st  %g1, [ %fp + -28 ]
 3e0:	d0 07 bf e4 	ld  [ %fp + -28 ], %o0
 3e4:	d2 07 bf e8 	ld  [ %fp + -24 ], %o1
 3e8:	40 00 01 c9 	call  b0c <MULSHIFT32>
 3ec:	01 00 00 00 	nop 
 3f0:	84 10 00 08 	mov  %o0, %g2
 3f4:	c2 07 bf c0 	ld  [ %fp + -64 ], %g1
 3f8:	82 00 60 04 	add  %g1, 4, %g1
 3fc:	c2 00 40 00 	ld  [ %g1 ], %g1
 400:	82 00 80 01 	add  %g2, %g1, %g1
 404:	c2 27 bf e4 	st  %g1, [ %fp + -28 ]
 408:	d0 07 bf e4 	ld  [ %fp + -28 ], %o0
 40c:	d2 07 bf e8 	ld  [ %fp + -24 ], %o1
 410:	40 00 01 bf 	call  b0c <MULSHIFT32>
 414:	01 00 00 00 	nop 
 418:	84 10 00 08 	mov  %o0, %g2
 41c:	c2 07 bf c0 	ld  [ %fp + -64 ], %g1
 420:	82 00 60 08 	add  %g1, 8, %g1
 424:	c2 00 40 00 	ld  [ %g1 ], %g1
 428:	82 00 80 01 	add  %g2, %g1, %g1
 42c:	c2 27 bf e4 	st  %g1, [ %fp + -28 ]
 430:	d0 07 bf e4 	ld  [ %fp + -28 ], %o0
 434:	d2 07 bf e8 	ld  [ %fp + -24 ], %o1
 438:	40 00 01 b5 	call  b0c <MULSHIFT32>
 43c:	01 00 00 00 	nop 
 440:	84 10 00 08 	mov  %o0, %g2
 444:	c2 07 bf c0 	ld  [ %fp + -64 ], %g1
 448:	82 00 60 0c 	add  %g1, 0xc, %g1
 44c:	c2 00 40 00 	ld  [ %g1 ], %g1
 450:	82 00 80 01 	add  %g2, %g1, %g1
 454:	c2 27 bf e4 	st  %g1, [ %fp + -28 ]
 458:	d0 07 bf e4 	ld  [ %fp + -28 ], %o0
 45c:	d2 07 bf e8 	ld  [ %fp + -24 ], %o1
 460:	40 00 01 ab 	call  b0c <MULSHIFT32>
 464:	01 00 00 00 	nop 
 468:	84 10 00 08 	mov  %o0, %g2
 46c:	c2 07 bf c0 	ld  [ %fp + -64 ], %g1
 470:	82 00 60 10 	add  %g1, 0x10, %g1
 474:	c2 00 40 00 	ld  [ %g1 ], %g1
 478:	82 00 80 01 	add  %g2, %g1, %g1
 47c:	c2 27 bf e4 	st  %g1, [ %fp + -28 ]
 480:	03 00 00 00 	sethi  %hi(0), %g1
 484:	82 10 60 00 	mov  %g1, %g1	! 0 <DequantBlock-0x8>
 488:	c4 05 c0 01 	ld  [ %l7 + %g1 ], %g2
 48c:	c2 07 bf dc 	ld  [ %fp + -36 ], %g1
 490:	83 28 60 02 	sll  %g1, 2, %g1
 494:	d0 07 bf e4 	ld  [ %fp + -28 ], %o0
 498:	d2 00 80 01 	ld  [ %g2 + %g1 ], %o1
 49c:	40 00 01 9c 	call  b0c <MULSHIFT32>
 4a0:	01 00 00 00 	nop 
 4a4:	82 10 00 08 	mov  %o0, %g1
 4a8:	83 28 60 03 	sll  %g1, 3, %g1
 4ac:	c2 27 bf e4 	st  %g1, [ %fp + -28 ]
 4b0:	d0 07 bf e4 	ld  [ %fp + -28 ], %o0
 4b4:	d2 07 bf f0 	ld  [ %fp + -16 ], %o1
 4b8:	40 00 01 95 	call  b0c <MULSHIFT32>
 4bc:	01 00 00 00 	nop 
 4c0:	82 10 00 08 	mov  %o0, %g1
 4c4:	c2 27 bf e4 	st  %g1, [ %fp + -28 ]
 4c8:	c2 07 bf ec 	ld  [ %fp + -20 ], %g1
 4cc:	86 20 00 01 	neg  %g1, %g3
 4d0:	03 00 00 00 	sethi  %hi(0), %g1
 4d4:	82 10 60 00 	mov  %g1, %g1	! 0 <DequantBlock-0x8>
 4d8:	c4 05 c0 01 	ld  [ %l7 + %g1 ], %g2
 4dc:	c2 07 bf dc 	ld  [ %fp + -36 ], %g1
 4e0:	83 28 60 02 	sll  %g1, 2, %g1
 4e4:	c2 00 80 01 	ld  [ %g2 + %g1 ], %g1
 4e8:	82 20 c0 01 	sub  %g3, %g1, %g1
 4ec:	82 00 60 18 	add  %g1, 0x18, %g1
 4f0:	c2 27 bf dc 	st  %g1, [ %fp + -36 ]
 4f4:	c2 07 bf dc 	ld  [ %fp + -36 ], %g1
 4f8:	80 a0 60 00 	cmp  %g1, 0
 4fc:	14 80 00 1e 	bg  574 <DequantBlock+0x56c>
 500:	01 00 00 00 	nop 
 504:	c2 07 bf dc 	ld  [ %fp + -36 ], %g1
 508:	82 20 00 01 	neg  %g1
 50c:	c2 27 bf dc 	st  %g1, [ %fp + -36 ]
 510:	c2 07 bf dc 	ld  [ %fp + -36 ], %g1
 514:	80 a0 60 1f 	cmp  %g1, 0x1f
 518:	04 80 00 04 	ble  528 <DequantBlock+0x520>
 51c:	01 00 00 00 	nop 
 520:	82 10 20 1f 	mov  0x1f, %g1	! 1f <DequantBlock+0x17>
 524:	c2 27 bf dc 	st  %g1, [ %fp + -36 ]
 528:	03 1f ff ff 	sethi  %hi(0x7ffffc00), %g1
 52c:	84 10 63 ff 	or  %g1, 0x3ff, %g2	! 7fffffff <CLZ+0x7ffff447>
 530:	c2 07 bf dc 	ld  [ %fp + -36 ], %g1
 534:	85 38 80 01 	sra  %g2, %g1, %g2
 538:	c2 07 bf e4 	ld  [ %fp + -28 ], %g1
 53c:	80 a0 40 02 	cmp  %g1, %g2
 540:	04 80 00 07 	ble  55c <DequantBlock+0x554>
 544:	01 00 00 00 	nop 
 548:	03 1f ff ff 	sethi  %hi(0x7ffffc00), %g1
 54c:	82 10 63 ff 	or  %g1, 0x3ff, %g1	! 7fffffff <CLZ+0x7ffff447>
 550:	c2 27 bf e4 	st  %g1, [ %fp + -28 ]
 554:	10 80 00 12 	b  59c <DequantBlock+0x594>
 558:	01 00 00 00 	nop 
 55c:	c2 07 bf e4 	ld  [ %fp + -28 ], %g1
 560:	c4 07 bf dc 	ld  [ %fp + -36 ], %g2
 564:	83 28 40 02 	sll  %g1, %g2, %g1
 568:	c2 27 bf e4 	st  %g1, [ %fp + -28 ]
 56c:	10 80 00 0c 	b  59c <DequantBlock+0x594>
 570:	01 00 00 00 	nop 
 574:	c2 07 bf dc 	ld  [ %fp + -36 ], %g1
 578:	80 a0 60 1f 	cmp  %g1, 0x1f
 57c:	04 80 00 04 	ble  58c <DequantBlock+0x584>
 580:	01 00 00 00 	nop 
 584:	82 10 20 1f 	mov  0x1f, %g1	! 1f <DequantBlock+0x17>
 588:	c2 27 bf dc 	st  %g1, [ %fp + -36 ]
 58c:	c2 07 bf e4 	ld  [ %fp + -28 ], %g1
 590:	c4 07 bf dc 	ld  [ %fp + -36 ], %g2
 594:	83 38 40 02 	sra  %g1, %g2, %g1
 598:	c2 27 bf e4 	st  %g1, [ %fp + -28 ]
 59c:	c4 07 bf e0 	ld  [ %fp + -32 ], %g2
 5a0:	c2 07 bf e4 	ld  [ %fp + -28 ], %g1
 5a4:	82 10 80 01 	or  %g2, %g1, %g1
 5a8:	c2 27 bf e0 	st  %g1, [ %fp + -32 ]
 5ac:	c2 07 bf f4 	ld  [ %fp + -12 ], %g1
 5b0:	83 38 60 1f 	sra  %g1, 0x1f, %g1
 5b4:	c2 27 bf f4 	st  %g1, [ %fp + -12 ]
 5b8:	c4 07 bf e4 	ld  [ %fp + -28 ], %g2
 5bc:	c2 07 bf f4 	ld  [ %fp + -12 ], %g1
 5c0:	82 18 80 01 	xor  %g2, %g1, %g1
 5c4:	c2 27 bf e4 	st  %g1, [ %fp + -28 ]
 5c8:	c4 07 bf e4 	ld  [ %fp + -28 ], %g2
 5cc:	c2 07 bf f4 	ld  [ %fp + -12 ], %g1
 5d0:	82 20 80 01 	sub  %g2, %g1, %g1
 5d4:	c2 27 bf e4 	st  %g1, [ %fp + -28 ]
 5d8:	c2 07 a0 44 	ld  [ %fp + 0x44 ], %g1
 5dc:	86 10 00 01 	mov  %g1, %g3
 5e0:	c4 07 bf e4 	ld  [ %fp + -28 ], %g2
 5e4:	c4 20 c0 00 	st  %g2, [ %g3 ]
 5e8:	82 00 60 04 	add  %g1, 4, %g1
 5ec:	c2 27 a0 44 	st  %g1, [ %fp + 0x44 ]
 5f0:	c2 07 a0 48 	ld  [ %fp + 0x48 ], %g1
 5f4:	82 00 7f ff 	add  %g1, -1, %g1
 5f8:	c2 27 a0 48 	st  %g1, [ %fp + 0x48 ]
 5fc:	80 a0 60 00 	cmp  %g1, 0
 600:	12 bf fe ff 	bne  1fc <DequantBlock+0x1f4>
 604:	01 00 00 00 	nop 
 608:	c2 07 bf e0 	ld  [ %fp + -32 ], %g1
 60c:	c2 27 bf bc 	st  %g1, [ %fp + -68 ]
 610:	f0 07 bf bc 	ld  [ %fp + -68 ], %i0
 614:	81 c7 e0 08 	ret 
 618:	81 e8 00 00 	restore 

0000061c <raac_Dequantize>:
 61c:	9d e3 bf 58 	save  %sp, -168, %sp
 620:	2f 00 00 00 	sethi  %hi(0), %l7
 624:	7f ff fe 77 	call  0 <DequantBlock-0x8>
 628:	ae 05 e0 00 	add  %l7, 0, %l7	! 0 <DequantBlock-0x8>
 62c:	f0 27 a0 44 	st  %i0, [ %fp + 0x44 ]
 630:	f2 27 a0 48 	st  %i1, [ %fp + 0x48 ]
 634:	c2 07 a0 44 	ld  [ %fp + 0x44 ], %g1
 638:	80 a0 60 00 	cmp  %g1, 0
 63c:	02 80 00 07 	be  658 <raac_Dequantize+0x3c>
 640:	01 00 00 00 	nop 
 644:	c2 07 a0 44 	ld  [ %fp + 0x44 ], %g1
 648:	c2 00 40 00 	ld  [ %g1 ], %g1
 64c:	80 a0 60 00 	cmp  %g1, 0
 650:	12 80 00 06 	bne  668 <raac_Dequantize+0x4c>
 654:	01 00 00 00 	nop 
 658:	82 10 3f fe 	mov  -2, %g1	! fffffffe <CLZ+0xfffff446>
 65c:	c2 27 bf c0 	st  %g1, [ %fp + -64 ]
 660:	10 80 01 21 	b  ae4 <raac_Dequantize+0x4c8>
 664:	01 00 00 00 	nop 
 668:	c2 07 a0 44 	ld  [ %fp + 0x44 ], %g1
 66c:	c2 00 40 00 	ld  [ %g1 ], %g1
 670:	c2 27 bf c8 	st  %g1, [ %fp + -56 ]
 674:	c2 07 a0 48 	ld  [ %fp + 0x48 ], %g1
 678:	80 a0 60 01 	cmp  %g1, 1
 67c:	12 80 00 0c 	bne  6ac <raac_Dequantize+0x90>
 680:	01 00 00 00 	nop 
 684:	c2 07 bf c8 	ld  [ %fp + -56 ], %g1
 688:	c2 00 68 f0 	ld  [ %g1 + 0x8f0 ], %g1
 68c:	80 a0 60 01 	cmp  %g1, 1
 690:	12 80 00 07 	bne  6ac <raac_Dequantize+0x90>
 694:	01 00 00 00 	nop 
 698:	c2 07 bf c8 	ld  [ %fp + -56 ], %g1
 69c:	82 00 68 7c 	add  %g1, 0x87c, %g1
 6a0:	c2 27 bf bc 	st  %g1, [ %fp + -68 ]
 6a4:	10 80 00 0f 	b  6e0 <raac_Dequantize+0xc4>
 6a8:	01 00 00 00 	nop 
 6ac:	c4 07 a0 48 	ld  [ %fp + 0x48 ], %g2
 6b0:	82 10 00 02 	mov  %g2, %g1
 6b4:	83 28 60 03 	sll  %g1, 3, %g1
 6b8:	82 20 40 02 	sub  %g1, %g2, %g1
 6bc:	83 28 60 02 	sll  %g1, 2, %g1
 6c0:	82 00 40 02 	add  %g1, %g2, %g1
 6c4:	84 00 40 01 	add  %g1, %g1, %g2
 6c8:	c2 07 bf c8 	ld  [ %fp + -56 ], %g1
 6cc:	84 00 80 01 	add  %g2, %g1, %g2
 6d0:	c4 27 bf bc 	st  %g2, [ %fp + -68 ]
 6d4:	c2 07 bf bc 	ld  [ %fp + -68 ], %g1
 6d8:	82 00 68 7c 	add  %g1, 0x87c, %g1
 6dc:	c2 27 bf bc 	st  %g1, [ %fp + -68 ]
 6e0:	c2 07 bf bc 	ld  [ %fp + -68 ], %g1
 6e4:	c2 27 bf c4 	st  %g1, [ %fp + -60 ]
 6e8:	c2 07 bf c4 	ld  [ %fp + -60 ], %g1
 6ec:	c2 08 60 01 	ldub  [ %g1 + 1 ], %g1
 6f0:	82 08 60 ff 	and  %g1, 0xff, %g1
 6f4:	80 a0 60 02 	cmp  %g1, 2
 6f8:	12 80 00 13 	bne  744 <raac_Dequantize+0x128>
 6fc:	01 00 00 00 	nop 
 700:	03 00 00 00 	sethi  %hi(0), %g1
 704:	82 10 60 00 	mov  %g1, %g1	! 0 <DequantBlock-0x8>
 708:	c4 05 c0 01 	ld  [ %l7 + %g1 ], %g2
 70c:	c2 07 bf c8 	ld  [ %fp + -56 ], %g1
 710:	c2 00 68 78 	ld  [ %g1 + 0x878 ], %g1
 714:	83 28 60 02 	sll  %g1, 2, %g1
 718:	c2 00 80 01 	ld  [ %g2 + %g1 ], %g1
 71c:	84 00 40 01 	add  %g1, %g1, %g2
 720:	03 00 00 00 	sethi  %hi(0), %g1
 724:	82 10 60 00 	mov  %g1, %g1	! 0 <DequantBlock-0x8>
 728:	c2 05 c0 01 	ld  [ %l7 + %g1 ], %g1
 72c:	82 00 40 02 	add  %g1, %g2, %g1
 730:	c2 27 bf d4 	st  %g1, [ %fp + -44 ]
 734:	82 10 20 80 	mov  0x80, %g1
 738:	c2 27 bf e0 	st  %g1, [ %fp + -32 ]
 73c:	10 80 00 11 	b  780 <raac_Dequantize+0x164>
 740:	01 00 00 00 	nop 
 744:	03 00 00 00 	sethi  %hi(0), %g1
 748:	82 10 60 00 	mov  %g1, %g1	! 0 <DequantBlock-0x8>
 74c:	c4 05 c0 01 	ld  [ %l7 + %g1 ], %g2
 750:	c2 07 bf c8 	ld  [ %fp + -56 ], %g1
 754:	c2 00 68 78 	ld  [ %g1 + 0x878 ], %g1
 758:	83 28 60 02 	sll  %g1, 2, %g1
 75c:	c2 00 80 01 	ld  [ %g2 + %g1 ], %g1
 760:	84 00 40 01 	add  %g1, %g1, %g2
 764:	03 00 00 00 	sethi  %hi(0), %g1
 768:	82 10 60 00 	mov  %g1, %g1	! 0 <DequantBlock-0x8>
 76c:	c2 05 c0 01 	ld  [ %l7 + %g1 ], %g1
 770:	82 00 40 02 	add  %g1, %g2, %g1
 774:	c2 27 bf d4 	st  %g1, [ %fp + -44 ]
 778:	82 10 24 00 	mov  0x400, %g1
 77c:	c2 27 bf e0 	st  %g1, [ %fp + -32 ]
 780:	c2 07 a0 48 	ld  [ %fp + 0x48 ], %g1
 784:	85 28 60 0c 	sll  %g1, 0xc, %g2
 788:	c2 07 bf c8 	ld  [ %fp + -56 ], %g1
 78c:	84 00 80 01 	add  %g2, %g1, %g2
 790:	03 00 00 04 	sethi  %hi(0x1000), %g1
 794:	82 10 60 48 	or  %g1, 0x48, %g1	! 1048 <CLZ+0x490>
 798:	82 00 80 01 	add  %g2, %g1, %g1
 79c:	c2 27 bf d8 	st  %g1, [ %fp + -40 ]
 7a0:	c4 07 a0 48 	ld  [ %fp + 0x48 ], %g2
 7a4:	82 10 00 02 	mov  %g2, %g1
 7a8:	83 28 60 04 	sll  %g1, 4, %g1
 7ac:	82 20 40 02 	sub  %g1, %g2, %g1
 7b0:	85 28 60 03 	sll  %g1, 3, %g2
 7b4:	c2 07 bf c8 	ld  [ %fp + -56 ], %g1
 7b8:	82 00 80 01 	add  %g2, %g1, %g1
 7bc:	82 00 6a d4 	add  %g1, 0xad4, %g1
 7c0:	c2 27 bf d0 	st  %g1, [ %fp + -48 ]
 7c4:	c4 07 a0 48 	ld  [ %fp + 0x48 ], %g2
 7c8:	82 10 00 02 	mov  %g2, %g1
 7cc:	83 28 60 04 	sll  %g1, 4, %g1
 7d0:	82 20 40 02 	sub  %g1, %g2, %g1
 7d4:	85 28 60 04 	sll  %g1, 4, %g2
 7d8:	c2 07 bf c8 	ld  [ %fp + -56 ], %g1
 7dc:	82 00 80 01 	add  %g2, %g1, %g1
 7e0:	82 00 68 f4 	add  %g1, 0x8f4, %g1
 7e4:	c2 27 bf cc 	st  %g1, [ %fp + -52 ]
 7e8:	c4 07 bf c8 	ld  [ %fp + -56 ], %g2
 7ec:	c2 07 a0 48 	ld  [ %fp + 0x48 ], %g1
 7f0:	83 28 60 02 	sll  %g1, 2, %g1
 7f4:	82 00 40 02 	add  %g1, %g2, %g1
 7f8:	c0 20 6b e4 	clr  [ %g1 + 0xbe4 ]
 7fc:	c4 07 bf c8 	ld  [ %fp + -56 ], %g2
 800:	c2 07 a0 48 	ld  [ %fp + 0x48 ], %g1
 804:	83 28 60 02 	sll  %g1, 2, %g1
 808:	82 00 40 02 	add  %g1, %g2, %g1
 80c:	c0 20 6b d8 	clr  [ %g1 + 0xbd8 ]
 810:	c0 27 bf dc 	clr  [ %fp + -36 ]
 814:	c0 27 bf f4 	clr  [ %fp + -12 ]
 818:	c2 07 bf c4 	ld  [ %fp + -60 ], %g1
 81c:	c2 08 60 31 	ldub  [ %g1 + 0x31 ], %g1
 820:	84 08 60 ff 	and  %g1, 0xff, %g2
 824:	c2 07 bf f4 	ld  [ %fp + -12 ], %g1
 828:	80 a0 40 02 	cmp  %g1, %g2
 82c:	06 80 00 04 	bl  83c <raac_Dequantize+0x220>
 830:	01 00 00 00 	nop 
 834:	10 80 00 94 	b  a84 <raac_Dequantize+0x468>
 838:	01 00 00 00 	nop 
 83c:	c0 27 bf e8 	clr  [ %fp + -24 ]
 840:	c4 07 bf c4 	ld  [ %fp + -60 ], %g2
 844:	c2 07 bf f4 	ld  [ %fp + -12 ], %g1
 848:	82 00 80 01 	add  %g2, %g1, %g1
 84c:	c2 08 60 32 	ldub  [ %g1 + 0x32 ], %g1
 850:	84 08 60 ff 	and  %g1, 0xff, %g2
 854:	c2 07 bf e8 	ld  [ %fp + -24 ], %g1
 858:	80 a0 40 02 	cmp  %g1, %g2
 85c:	06 80 00 04 	bl  86c <raac_Dequantize+0x250>
 860:	01 00 00 00 	nop 
 864:	10 80 00 76 	b  a3c <raac_Dequantize+0x420>
 868:	01 00 00 00 	nop 
 86c:	c0 27 bf ec 	clr  [ %fp + -20 ]
 870:	c2 07 bf c4 	ld  [ %fp + -60 ], %g1
 874:	c2 08 60 03 	ldub  [ %g1 + 3 ], %g1
 878:	84 08 60 ff 	and  %g1, 0xff, %g2
 87c:	c2 07 bf ec 	ld  [ %fp + -20 ], %g1
 880:	80 a0 40 02 	cmp  %g1, %g2
 884:	06 80 00 04 	bl  894 <raac_Dequantize+0x278>
 888:	01 00 00 00 	nop 
 88c:	10 80 00 58 	b  9ec <raac_Dequantize+0x3d0>
 890:	01 00 00 00 	nop 
 894:	c4 07 bf d0 	ld  [ %fp + -48 ], %g2
 898:	c2 07 bf ec 	ld  [ %fp + -20 ], %g1
 89c:	82 00 80 01 	add  %g2, %g1, %g1
 8a0:	c2 08 40 00 	ldub  [ %g1 ], %g1
 8a4:	82 08 60 ff 	and  %g1, 0xff, %g1
 8a8:	c2 27 bf f0 	st  %g1, [ %fp + -16 ]
 8ac:	c2 07 bf ec 	ld  [ %fp + -20 ], %g1
 8b0:	84 00 40 01 	add  %g1, %g1, %g2
 8b4:	c2 07 bf d4 	ld  [ %fp + -44 ], %g1
 8b8:	82 00 80 01 	add  %g2, %g1, %g1
 8bc:	c2 10 60 02 	lduh  [ %g1 + 2 ], %g1
 8c0:	83 28 60 10 	sll  %g1, 0x10, %g1
 8c4:	87 38 60 10 	sra  %g1, 0x10, %g3
 8c8:	c2 07 bf ec 	ld  [ %fp + -20 ], %g1
 8cc:	84 00 40 01 	add  %g1, %g1, %g2
 8d0:	c2 07 bf d4 	ld  [ %fp + -44 ], %g1
 8d4:	82 00 80 01 	add  %g2, %g1, %g1
 8d8:	c2 10 40 00 	lduh  [ %g1 ], %g1
 8dc:	83 28 60 10 	sll  %g1, 0x10, %g1
 8e0:	83 38 60 10 	sra  %g1, 0x10, %g1
 8e4:	82 20 c0 01 	sub  %g3, %g1, %g1
 8e8:	c2 27 bf e4 	st  %g1, [ %fp + -28 ]
 8ec:	c2 07 bf f0 	ld  [ %fp + -16 ], %g1
 8f0:	80 a0 60 00 	cmp  %g1, 0
 8f4:	06 80 00 18 	bl  954 <raac_Dequantize+0x338>
 8f8:	01 00 00 00 	nop 
 8fc:	c2 07 bf f0 	ld  [ %fp + -16 ], %g1
 900:	80 a0 60 0b 	cmp  %g1, 0xb
 904:	14 80 00 14 	bg  954 <raac_Dequantize+0x338>
 908:	01 00 00 00 	nop 
 90c:	c2 07 bf ec 	ld  [ %fp + -20 ], %g1
 910:	84 00 40 01 	add  %g1, %g1, %g2
 914:	c2 07 bf cc 	ld  [ %fp + -52 ], %g1
 918:	82 00 80 01 	add  %g2, %g1, %g1
 91c:	c2 10 40 00 	lduh  [ %g1 ], %g1
 920:	83 28 60 10 	sll  %g1, 0x10, %g1
 924:	83 38 60 10 	sra  %g1, 0x10, %g1
 928:	d0 07 bf d8 	ld  [ %fp + -40 ], %o0
 92c:	d2 07 bf e4 	ld  [ %fp + -28 ], %o1
 930:	94 10 00 01 	mov  %g1, %o2
 934:	7f ff fd b5 	call  8 <DequantBlock>
 938:	01 00 00 00 	nop 
 93c:	84 10 00 08 	mov  %o0, %g2
 940:	c2 07 bf dc 	ld  [ %fp + -36 ], %g1
 944:	82 10 40 02 	or  %g1, %g2, %g1
 948:	c2 27 bf dc 	st  %g1, [ %fp + -36 ]
 94c:	10 80 00 1e 	b  9c4 <raac_Dequantize+0x3a8>
 950:	01 00 00 00 	nop 
 954:	c2 07 bf f0 	ld  [ %fp + -16 ], %g1
 958:	80 a0 60 0d 	cmp  %g1, 0xd
 95c:	12 80 00 0a 	bne  984 <raac_Dequantize+0x368>
 960:	01 00 00 00 	nop 
 964:	c4 07 bf c8 	ld  [ %fp + -56 ], %g2
 968:	c2 07 a0 48 	ld  [ %fp + 0x48 ], %g1
 96c:	83 28 60 02 	sll  %g1, 2, %g1
 970:	84 00 40 02 	add  %g1, %g2, %g2
 974:	82 10 20 01 	mov  1, %g1
 978:	c2 20 ab d8 	st  %g1, [ %g2 + 0xbd8 ]
 97c:	10 80 00 12 	b  9c4 <raac_Dequantize+0x3a8>
 980:	01 00 00 00 	nop 
 984:	c2 07 bf f0 	ld  [ %fp + -16 ], %g1
 988:	80 a0 60 0e 	cmp  %g1, 0xe
 98c:	02 80 00 08 	be  9ac <raac_Dequantize+0x390>
 990:	01 00 00 00 	nop 
 994:	c2 07 bf f0 	ld  [ %fp + -16 ], %g1
 998:	80 a0 60 0f 	cmp  %g1, 0xf
 99c:	02 80 00 04 	be  9ac <raac_Dequantize+0x390>
 9a0:	01 00 00 00 	nop 
 9a4:	10 80 00 08 	b  9c4 <raac_Dequantize+0x3a8>
 9a8:	01 00 00 00 	nop 
 9ac:	c4 07 bf c8 	ld  [ %fp + -56 ], %g2
 9b0:	c2 07 a0 48 	ld  [ %fp + 0x48 ], %g1
 9b4:	83 28 60 02 	sll  %g1, 2, %g1
 9b8:	84 00 40 02 	add  %g1, %g2, %g2
 9bc:	82 10 20 01 	mov  1, %g1
 9c0:	c2 20 ab e4 	st  %g1, [ %g2 + 0xbe4 ]
 9c4:	c2 07 bf e4 	ld  [ %fp + -28 ], %g1
 9c8:	85 28 60 02 	sll  %g1, 2, %g2
 9cc:	c2 07 bf d8 	ld  [ %fp + -40 ], %g1
 9d0:	82 00 40 02 	add  %g1, %g2, %g1
 9d4:	c2 27 bf d8 	st  %g1, [ %fp + -40 ]
 9d8:	c2 07 bf ec 	ld  [ %fp + -20 ], %g1
 9dc:	82 00 60 01 	inc  %g1
 9e0:	c2 27 bf ec 	st  %g1, [ %fp + -20 ]
 9e4:	10 bf ff a3 	b  870 <raac_Dequantize+0x254>
 9e8:	01 00 00 00 	nop 
 9ec:	c2 07 bf c4 	ld  [ %fp + -60 ], %g1
 9f0:	c2 08 60 03 	ldub  [ %g1 + 3 ], %g1
 9f4:	82 08 60 ff 	and  %g1, 0xff, %g1
 9f8:	84 00 40 01 	add  %g1, %g1, %g2
 9fc:	c2 07 bf d4 	ld  [ %fp + -44 ], %g1
 a00:	82 00 80 01 	add  %g2, %g1, %g1
 a04:	c2 10 40 00 	lduh  [ %g1 ], %g1
 a08:	83 28 60 10 	sll  %g1, 0x10, %g1
 a0c:	85 38 60 10 	sra  %g1, 0x10, %g2
 a10:	c2 07 bf e0 	ld  [ %fp + -32 ], %g1
 a14:	82 20 40 02 	sub  %g1, %g2, %g1
 a18:	85 28 60 02 	sll  %g1, 2, %g2
 a1c:	c2 07 bf d8 	ld  [ %fp + -40 ], %g1
 a20:	82 00 40 02 	add  %g1, %g2, %g1
 a24:	c2 27 bf d8 	st  %g1, [ %fp + -40 ]
 a28:	c2 07 bf e8 	ld  [ %fp + -24 ], %g1
 a2c:	82 00 60 01 	inc  %g1
 a30:	c2 27 bf e8 	st  %g1, [ %fp + -24 ]
 a34:	10 bf ff 83 	b  840 <raac_Dequantize+0x224>
 a38:	01 00 00 00 	nop 
 a3c:	c2 07 bf c4 	ld  [ %fp + -60 ], %g1
 a40:	c2 08 60 03 	ldub  [ %g1 + 3 ], %g1
 a44:	84 08 60 ff 	and  %g1, 0xff, %g2
 a48:	c2 07 bf d0 	ld  [ %fp + -48 ], %g1
 a4c:	82 00 40 02 	add  %g1, %g2, %g1
 a50:	c2 27 bf d0 	st  %g1, [ %fp + -48 ]
 a54:	c2 07 bf c4 	ld  [ %fp + -60 ], %g1
 a58:	c2 08 60 03 	ldub  [ %g1 + 3 ], %g1
 a5c:	82 08 60 ff 	and  %g1, 0xff, %g1
 a60:	84 00 40 01 	add  %g1, %g1, %g2
 a64:	c2 07 bf cc 	ld  [ %fp + -52 ], %g1
 a68:	82 00 40 02 	add  %g1, %g2, %g1
 a6c:	c2 27 bf cc 	st  %g1, [ %fp + -52 ]
 a70:	c2 07 bf f4 	ld  [ %fp + -12 ], %g1
 a74:	82 00 60 01 	inc  %g1
 a78:	c2 27 bf f4 	st  %g1, [ %fp + -12 ]
 a7c:	10 bf ff 67 	b  818 <raac_Dequantize+0x1fc>
 a80:	01 00 00 00 	nop 
 a84:	c8 07 a0 44 	ld  [ %fp + 0x44 ], %g4
 a88:	c6 07 a0 44 	ld  [ %fp + 0x44 ], %g3
 a8c:	c4 07 bf c8 	ld  [ %fp + -56 ], %g2
 a90:	c2 07 a0 48 	ld  [ %fp + 0x48 ], %g1
 a94:	83 28 60 02 	sll  %g1, 2, %g1
 a98:	82 00 40 02 	add  %g1, %g2, %g1
 a9c:	c4 00 e0 58 	ld  [ %g3 + 0x58 ], %g2
 aa0:	c2 00 6b d8 	ld  [ %g1 + 0xbd8 ], %g1
 aa4:	82 10 80 01 	or  %g2, %g1, %g1
 aa8:	c2 21 20 58 	st  %g1, [ %g4 + 0x58 ]
 aac:	c4 07 bf c8 	ld  [ %fp + -56 ], %g2
 ab0:	c2 07 a0 48 	ld  [ %fp + 0x48 ], %g1
 ab4:	83 28 60 02 	sll  %g1, 2, %g1
 ab8:	84 00 40 02 	add  %g1, %g2, %g2
 abc:	03 00 00 04 	sethi  %hi(0x1000), %g1
 ac0:	82 10 60 40 	or  %g1, 0x40, %g1	! 1040 <CLZ+0x488>
 ac4:	a0 00 80 01 	add  %g2, %g1, %l0
 ac8:	d0 07 bf dc 	ld  [ %fp + -36 ], %o0
 acc:	40 00 00 3b 	call  bb8 <CLZ>
 ad0:	01 00 00 00 	nop 
 ad4:	82 10 00 08 	mov  %o0, %g1
 ad8:	82 00 7f ff 	add  %g1, -1, %g1
 adc:	c2 24 00 00 	st  %g1, [ %l0 ]
 ae0:	c0 27 bf c0 	clr  [ %fp + -64 ]
 ae4:	f0 07 bf c0 	ld  [ %fp + -64 ], %i0
 ae8:	81 c7 e0 08 	ret 
 aec:	81 e8 00 00 	restore 

00000af0 <raac_DeinterleaveShortBlocks>:
 af0:	9d e3 bf 98 	save  %sp, -104, %sp
 af4:	f0 27 a0 44 	st  %i0, [ %fp + 0x44 ]
 af8:	f2 27 a0 48 	st  %i1, [ %fp + 0x48 ]
 afc:	82 10 20 00 	clr  %g1
 b00:	b0 10 00 01 	mov  %g1, %i0
 b04:	81 c7 e0 08 	ret 
 b08:	81 e8 00 00 	restore 

00000b0c <MULSHIFT32>:
 b0c:	9d e3 bf 90 	save  %sp, -112, %sp
 b10:	f0 27 a0 44 	st  %i0, [ %fp + 0x44 ]
 b14:	f2 27 a0 48 	st  %i1, [ %fp + 0x48 ]
 b18:	c2 07 a0 44 	ld  [ %fp + 0x44 ], %g1
 b1c:	83 38 60 1f 	sra  %g1, 0x1f, %g1
 b20:	da 07 a0 44 	ld  [ %fp + 0x44 ], %o5
 b24:	98 10 00 01 	mov  %g1, %o4
 b28:	c2 07 a0 48 	ld  [ %fp + 0x48 ], %g1
 b2c:	83 38 60 1f 	sra  %g1, 0x1f, %g1
 b30:	c6 07 a0 48 	ld  [ %fp + 0x48 ], %g3
 b34:	84 10 00 01 	mov  %g1, %g2
 b38:	90 10 00 0c 	mov  %o4, %o0
 b3c:	92 10 00 0d 	mov  %o5, %o1
 b40:	94 10 00 02 	mov  %g2, %o2
 b44:	96 10 00 03 	mov  %g3, %o3
 b48:	40 00 00 00 	call  b48 <MULSHIFT32+0x3c>
 b4c:	01 00 00 00 	nop 
 b50:	98 10 00 08 	mov  %o0, %o4
 b54:	9a 10 00 09 	mov  %o1, %o5
 b58:	87 3b 20 00 	sra  %o4, 0, %g3
 b5c:	85 3b 20 1f 	sra  %o4, 0x1f, %g2
 b60:	c6 27 bf f4 	st  %g3, [ %fp + -12 ]
 b64:	c2 07 bf f4 	ld  [ %fp + -12 ], %g1
 b68:	b0 10 00 01 	mov  %g1, %i0
 b6c:	81 c7 e0 08 	ret 
 b70:	81 e8 00 00 	restore 

00000b74 <FASTABS>:
 b74:	9d e3 bf 90 	save  %sp, -112, %sp
 b78:	f0 27 a0 44 	st  %i0, [ %fp + 0x44 ]
 b7c:	c2 07 a0 44 	ld  [ %fp + 0x44 ], %g1
 b80:	83 38 60 1f 	sra  %g1, 0x1f, %g1
 b84:	c2 27 bf f4 	st  %g1, [ %fp + -12 ]
 b88:	c4 07 a0 44 	ld  [ %fp + 0x44 ], %g2
 b8c:	c2 07 bf f4 	ld  [ %fp + -12 ], %g1
 b90:	82 18 80 01 	xor  %g2, %g1, %g1
 b94:	c2 27 a0 44 	st  %g1, [ %fp + 0x44 ]
 b98:	c4 07 a0 44 	ld  [ %fp + 0x44 ], %g2
 b9c:	c2 07 bf f4 	ld  [ %fp + -12 ], %g1
 ba0:	82 20 80 01 	sub  %g2, %g1, %g1
 ba4:	c2 27 a0 44 	st  %g1, [ %fp + 0x44 ]
 ba8:	c2 07 a0 44 	ld  [ %fp + 0x44 ], %g1
 bac:	b0 10 00 01 	mov  %g1, %i0
 bb0:	81 c7 e0 08 	ret 
 bb4:	81 e8 00 00 	restore 

00000bb8 <CLZ>:
 bb8:	9d e3 bf 90 	save  %sp, -112, %sp
 bbc:	f0 27 a0 44 	st  %i0, [ %fp + 0x44 ]
 bc0:	c2 07 a0 44 	ld  [ %fp + 0x44 ], %g1
 bc4:	80 a0 60 00 	cmp  %g1, 0
 bc8:	12 80 00 06 	bne  be0 <CLZ+0x28>
 bcc:	01 00 00 00 	nop 
 bd0:	82 10 20 20 	mov  0x20, %g1	! 20 <DequantBlock+0x18>
 bd4:	c2 27 bf f0 	st  %g1, [ %fp + -16 ]
 bd8:	10 80 00 37 	b  cb4 <CLZ+0xfc>
 bdc:	01 00 00 00 	nop 
 be0:	82 10 20 01 	mov  1, %g1	! 1 <DequantBlock-0x7>
 be4:	c2 27 bf f4 	st  %g1, [ %fp + -12 ]
 be8:	c2 07 a0 44 	ld  [ %fp + 0x44 ], %g1
 bec:	83 30 60 10 	srl  %g1, 0x10, %g1
 bf0:	80 a0 60 00 	cmp  %g1, 0
 bf4:	12 80 00 08 	bne  c14 <CLZ+0x5c>
 bf8:	01 00 00 00 	nop 
 bfc:	c2 07 bf f4 	ld  [ %fp + -12 ], %g1
 c00:	82 00 60 10 	add  %g1, 0x10, %g1
 c04:	c2 27 bf f4 	st  %g1, [ %fp + -12 ]
 c08:	c2 07 a0 44 	ld  [ %fp + 0x44 ], %g1
 c0c:	83 28 60 10 	sll  %g1, 0x10, %g1
 c10:	c2 27 a0 44 	st  %g1, [ %fp + 0x44 ]
 c14:	c2 07 a0 44 	ld  [ %fp + 0x44 ], %g1
 c18:	83 30 60 18 	srl  %g1, 0x18, %g1
 c1c:	80 a0 60 00 	cmp  %g1, 0
 c20:	12 80 00 08 	bne  c40 <CLZ+0x88>
 c24:	01 00 00 00 	nop 
 c28:	c2 07 bf f4 	ld  [ %fp + -12 ], %g1
 c2c:	82 00 60 08 	add  %g1, 8, %g1
 c30:	c2 27 bf f4 	st  %g1, [ %fp + -12 ]
 c34:	c2 07 a0 44 	ld  [ %fp + 0x44 ], %g1
 c38:	83 28 60 08 	sll  %g1, 8, %g1
 c3c:	c2 27 a0 44 	st  %g1, [ %fp + 0x44 ]
 c40:	c2 07 a0 44 	ld  [ %fp + 0x44 ], %g1
 c44:	83 30 60 1c 	srl  %g1, 0x1c, %g1
 c48:	80 a0 60 00 	cmp  %g1, 0
 c4c:	12 80 00 08 	bne  c6c <CLZ+0xb4>
 c50:	01 00 00 00 	nop 
 c54:	c2 07 bf f4 	ld  [ %fp + -12 ], %g1
 c58:	82 00 60 04 	add  %g1, 4, %g1
 c5c:	c2 27 bf f4 	st  %g1, [ %fp + -12 ]
 c60:	c2 07 a0 44 	ld  [ %fp + 0x44 ], %g1
 c64:	83 28 60 04 	sll  %g1, 4, %g1
 c68:	c2 27 a0 44 	st  %g1, [ %fp + 0x44 ]
 c6c:	c2 07 a0 44 	ld  [ %fp + 0x44 ], %g1
 c70:	83 30 60 1e 	srl  %g1, 0x1e, %g1
 c74:	80 a0 60 00 	cmp  %g1, 0
 c78:	12 80 00 08 	bne  c98 <CLZ+0xe0>
 c7c:	01 00 00 00 	nop 
 c80:	c2 07 bf f4 	ld  [ %fp + -12 ], %g1
 c84:	82 00 60 02 	add  %g1, 2, %g1
 c88:	c2 27 bf f4 	st  %g1, [ %fp + -12 ]
 c8c:	c2 07 a0 44 	ld  [ %fp + 0x44 ], %g1
 c90:	83 28 60 02 	sll  %g1, 2, %g1
 c94:	c2 27 a0 44 	st  %g1, [ %fp + 0x44 ]
 c98:	c2 07 a0 44 	ld  [ %fp + 0x44 ], %g1
 c9c:	85 30 60 1f 	srl  %g1, 0x1f, %g2
 ca0:	c2 07 bf f4 	ld  [ %fp + -12 ], %g1
 ca4:	82 20 40 02 	sub  %g1, %g2, %g1
 ca8:	c2 27 bf f4 	st  %g1, [ %fp + -12 ]
 cac:	c2 07 bf f4 	ld  [ %fp + -12 ], %g1
 cb0:	c2 27 bf f0 	st  %g1, [ %fp + -16 ]
 cb4:	f0 07 bf f0 	ld  [ %fp + -16 ], %i0
 cb8:	81 c7 e0 08 	ret 
 cbc:	81 e8 00 00 	restore 
