
fft.o:     file format elf32-sparc
fft.o

Disassembly of section .text:

00000000 <BitReverse-0x8>:
       0:	81 c3 e0 08 	retl 
       4:	ae 03 c0 17 	add  %o7, %l7, %l7

00000008 <BitReverse>:
       8:	9d e3 bf 78 	save  %sp, -136, %sp
       c:	2f 00 00 00 	sethi  %hi(0), %l7
      10:	7f ff ff fc 	call  0 <BitReverse-0x8>
      14:	ae 05 e0 00 	add  %l7, 0, %l7	! 0 <BitReverse-0x8>
      18:	f0 27 a0 44 	st  %i0, [ %fp + 0x44 ]
      1c:	f2 27 a0 48 	st  %i1, [ %fp + 0x48 ]
      20:	03 00 00 00 	sethi  %hi(0), %g1
      24:	82 10 60 00 	mov  %g1, %g1	! 0 <BitReverse-0x8>
      28:	c8 05 c0 01 	ld  [ %l7 + %g1 ], %g4
      2c:	c2 07 a0 48 	ld  [ %fp + 0x48 ], %g1
      30:	87 28 60 02 	sll  %g1, 2, %g3
      34:	03 00 00 00 	sethi  %hi(0), %g1
      38:	82 10 60 00 	mov  %g1, %g1	! 0 <BitReverse-0x8>
      3c:	c2 05 c0 01 	ld  [ %l7 + %g1 ], %g1
      40:	84 10 00 01 	mov  %g1, %g2
      44:	c2 01 00 03 	ld  [ %g4 + %g3 ], %g1
      48:	82 00 80 01 	add  %g2, %g1, %g1
      4c:	c2 27 bf dc 	st  %g1, [ %fp + -36 ]
      50:	03 00 00 00 	sethi  %hi(0), %g1
      54:	82 10 60 00 	mov  %g1, %g1	! 0 <BitReverse-0x8>
      58:	c4 05 c0 01 	ld  [ %l7 + %g1 ], %g2
      5c:	c2 07 a0 48 	ld  [ %fp + 0x48 ], %g1
      60:	83 28 60 02 	sll  %g1, 2, %g1
      64:	c2 00 80 01 	ld  [ %g2 + %g1 ], %g1
      68:	c2 27 bf d8 	st  %g1, [ %fp + -40 ]
      6c:	c2 07 a0 44 	ld  [ %fp + 0x44 ], %g1
      70:	c2 27 bf f4 	st  %g1, [ %fp + -12 ]
      74:	84 10 20 04 	mov  4, %g2
      78:	c2 07 bf d8 	ld  [ %fp + -40 ], %g1
      7c:	85 28 80 01 	sll  %g2, %g1, %g2
      80:	c2 07 a0 44 	ld  [ %fp + 0x44 ], %g1
      84:	82 00 40 02 	add  %g1, %g2, %g1
      88:	c2 27 bf f0 	st  %g1, [ %fp + -16 ]
      8c:	86 07 bf dc 	add  %fp, -36, %g3
      90:	c4 00 c0 00 	ld  [ %g3 ], %g2
      94:	82 10 00 02 	mov  %g2, %g1
      98:	c2 08 40 00 	ldub  [ %g1 ], %g1
      9c:	82 08 60 ff 	and  %g1, 0xff, %g1
      a0:	c2 27 bf ec 	st  %g1, [ %fp + -20 ]
      a4:	c2 07 bf ec 	ld  [ %fp + -20 ], %g1
      a8:	84 00 a0 01 	inc  %g2
      ac:	c4 20 c0 00 	st  %g2, [ %g3 ]
      b0:	80 a0 60 00 	cmp  %g1, 0
      b4:	12 80 00 04 	bne  c4 <BitReverse+0xbc>
      b8:	01 00 00 00 	nop 
      bc:	10 80 00 bc 	b  3ac <BitReverse+0x3a4>
      c0:	01 00 00 00 	nop 
      c4:	86 07 bf dc 	add  %fp, -36, %g3
      c8:	c4 00 c0 00 	ld  [ %g3 ], %g2
      cc:	82 10 00 02 	mov  %g2, %g1
      d0:	c2 08 40 00 	ldub  [ %g1 ], %g1
      d4:	82 08 60 ff 	and  %g1, 0xff, %g1
      d8:	c2 27 bf e8 	st  %g1, [ %fp + -24 ]
      dc:	84 00 a0 01 	inc  %g2
      e0:	c4 20 c0 00 	st  %g2, [ %g3 ]
      e4:	c2 07 bf ec 	ld  [ %fp + -20 ], %g1
      e8:	85 28 60 04 	sll  %g1, 4, %g2
      ec:	c2 07 bf f4 	ld  [ %fp + -12 ], %g1
      f0:	82 00 80 01 	add  %g2, %g1, %g1
      f4:	c2 00 40 00 	ld  [ %g1 ], %g1
      f8:	c2 27 bf e4 	st  %g1, [ %fp + -28 ]
      fc:	c2 07 bf ec 	ld  [ %fp + -20 ], %g1
     100:	85 28 60 04 	sll  %g1, 4, %g2
     104:	c2 07 bf f4 	ld  [ %fp + -12 ], %g1
     108:	82 00 80 01 	add  %g2, %g1, %g1
     10c:	c2 00 60 04 	ld  [ %g1 + 4 ], %g1
     110:	c2 27 bf e0 	st  %g1, [ %fp + -32 ]
     114:	c2 07 bf ec 	ld  [ %fp + -20 ], %g1
     118:	85 28 60 04 	sll  %g1, 4, %g2
     11c:	c2 07 bf f4 	ld  [ %fp + -12 ], %g1
     120:	86 00 80 01 	add  %g2, %g1, %g3
     124:	c2 07 bf e8 	ld  [ %fp + -24 ], %g1
     128:	85 28 60 04 	sll  %g1, 4, %g2
     12c:	c2 07 bf f4 	ld  [ %fp + -12 ], %g1
     130:	82 00 80 01 	add  %g2, %g1, %g1
     134:	c2 00 40 00 	ld  [ %g1 ], %g1
     138:	c2 20 c0 00 	st  %g1, [ %g3 ]
     13c:	c2 07 bf ec 	ld  [ %fp + -20 ], %g1
     140:	85 28 60 04 	sll  %g1, 4, %g2
     144:	c2 07 bf f4 	ld  [ %fp + -12 ], %g1
     148:	86 00 80 01 	add  %g2, %g1, %g3
     14c:	c2 07 bf e8 	ld  [ %fp + -24 ], %g1
     150:	85 28 60 04 	sll  %g1, 4, %g2
     154:	c2 07 bf f4 	ld  [ %fp + -12 ], %g1
     158:	82 00 80 01 	add  %g2, %g1, %g1
     15c:	c2 00 60 04 	ld  [ %g1 + 4 ], %g1
     160:	c2 20 e0 04 	st  %g1, [ %g3 + 4 ]
     164:	c2 07 bf e8 	ld  [ %fp + -24 ], %g1
     168:	85 28 60 04 	sll  %g1, 4, %g2
     16c:	c2 07 bf f4 	ld  [ %fp + -12 ], %g1
     170:	84 00 80 01 	add  %g2, %g1, %g2
     174:	c2 07 bf e4 	ld  [ %fp + -28 ], %g1
     178:	c2 20 80 00 	st  %g1, [ %g2 ]
     17c:	c2 07 bf e8 	ld  [ %fp + -24 ], %g1
     180:	85 28 60 04 	sll  %g1, 4, %g2
     184:	c2 07 bf f4 	ld  [ %fp + -12 ], %g1
     188:	84 00 80 01 	add  %g2, %g1, %g2
     18c:	c2 07 bf e0 	ld  [ %fp + -32 ], %g1
     190:	c2 20 a0 04 	st  %g1, [ %g2 + 4 ]
     194:	c2 07 bf ec 	ld  [ %fp + -20 ], %g1
     198:	85 28 60 04 	sll  %g1, 4, %g2
     19c:	c2 07 bf f4 	ld  [ %fp + -12 ], %g1
     1a0:	82 00 80 01 	add  %g2, %g1, %g1
     1a4:	c2 00 60 08 	ld  [ %g1 + 8 ], %g1
     1a8:	c2 27 bf e4 	st  %g1, [ %fp + -28 ]
     1ac:	c2 07 bf ec 	ld  [ %fp + -20 ], %g1
     1b0:	85 28 60 04 	sll  %g1, 4, %g2
     1b4:	c2 07 bf f4 	ld  [ %fp + -12 ], %g1
     1b8:	82 00 80 01 	add  %g2, %g1, %g1
     1bc:	c2 00 60 0c 	ld  [ %g1 + 0xc ], %g1
     1c0:	c2 27 bf e0 	st  %g1, [ %fp + -32 ]
     1c4:	c2 07 bf ec 	ld  [ %fp + -20 ], %g1
     1c8:	85 28 60 04 	sll  %g1, 4, %g2
     1cc:	c2 07 bf f4 	ld  [ %fp + -12 ], %g1
     1d0:	86 00 80 01 	add  %g2, %g1, %g3
     1d4:	c2 07 bf e8 	ld  [ %fp + -24 ], %g1
     1d8:	85 28 60 04 	sll  %g1, 4, %g2
     1dc:	c2 07 bf f0 	ld  [ %fp + -16 ], %g1
     1e0:	82 00 80 01 	add  %g2, %g1, %g1
     1e4:	c2 00 40 00 	ld  [ %g1 ], %g1
     1e8:	c2 20 e0 08 	st  %g1, [ %g3 + 8 ]
     1ec:	c2 07 bf ec 	ld  [ %fp + -20 ], %g1
     1f0:	85 28 60 04 	sll  %g1, 4, %g2
     1f4:	c2 07 bf f4 	ld  [ %fp + -12 ], %g1
     1f8:	86 00 80 01 	add  %g2, %g1, %g3
     1fc:	c2 07 bf e8 	ld  [ %fp + -24 ], %g1
     200:	85 28 60 04 	sll  %g1, 4, %g2
     204:	c2 07 bf f0 	ld  [ %fp + -16 ], %g1
     208:	82 00 80 01 	add  %g2, %g1, %g1
     20c:	c2 00 60 04 	ld  [ %g1 + 4 ], %g1
     210:	c2 20 e0 0c 	st  %g1, [ %g3 + 0xc ]
     214:	c2 07 bf e8 	ld  [ %fp + -24 ], %g1
     218:	85 28 60 04 	sll  %g1, 4, %g2
     21c:	c2 07 bf f0 	ld  [ %fp + -16 ], %g1
     220:	84 00 80 01 	add  %g2, %g1, %g2
     224:	c2 07 bf e4 	ld  [ %fp + -28 ], %g1
     228:	c2 20 80 00 	st  %g1, [ %g2 ]
     22c:	c2 07 bf e8 	ld  [ %fp + -24 ], %g1
     230:	85 28 60 04 	sll  %g1, 4, %g2
     234:	c2 07 bf f0 	ld  [ %fp + -16 ], %g1
     238:	84 00 80 01 	add  %g2, %g1, %g2
     23c:	c2 07 bf e0 	ld  [ %fp + -32 ], %g1
     240:	c2 20 a0 04 	st  %g1, [ %g2 + 4 ]
     244:	c2 07 bf ec 	ld  [ %fp + -20 ], %g1
     248:	85 28 60 04 	sll  %g1, 4, %g2
     24c:	c2 07 bf f0 	ld  [ %fp + -16 ], %g1
     250:	82 00 80 01 	add  %g2, %g1, %g1
     254:	c2 00 40 00 	ld  [ %g1 ], %g1
     258:	c2 27 bf e4 	st  %g1, [ %fp + -28 ]
     25c:	c2 07 bf ec 	ld  [ %fp + -20 ], %g1
     260:	85 28 60 04 	sll  %g1, 4, %g2
     264:	c2 07 bf f0 	ld  [ %fp + -16 ], %g1
     268:	82 00 80 01 	add  %g2, %g1, %g1
     26c:	c2 00 60 04 	ld  [ %g1 + 4 ], %g1
     270:	c2 27 bf e0 	st  %g1, [ %fp + -32 ]
     274:	c2 07 bf ec 	ld  [ %fp + -20 ], %g1
     278:	85 28 60 04 	sll  %g1, 4, %g2
     27c:	c2 07 bf f0 	ld  [ %fp + -16 ], %g1
     280:	86 00 80 01 	add  %g2, %g1, %g3
     284:	c2 07 bf e8 	ld  [ %fp + -24 ], %g1
     288:	85 28 60 04 	sll  %g1, 4, %g2
     28c:	c2 07 bf f4 	ld  [ %fp + -12 ], %g1
     290:	82 00 80 01 	add  %g2, %g1, %g1
     294:	c2 00 60 08 	ld  [ %g1 + 8 ], %g1
     298:	c2 20 c0 00 	st  %g1, [ %g3 ]
     29c:	c2 07 bf ec 	ld  [ %fp + -20 ], %g1
     2a0:	85 28 60 04 	sll  %g1, 4, %g2
     2a4:	c2 07 bf f0 	ld  [ %fp + -16 ], %g1
     2a8:	86 00 80 01 	add  %g2, %g1, %g3
     2ac:	c2 07 bf e8 	ld  [ %fp + -24 ], %g1
     2b0:	85 28 60 04 	sll  %g1, 4, %g2
     2b4:	c2 07 bf f4 	ld  [ %fp + -12 ], %g1
     2b8:	82 00 80 01 	add  %g2, %g1, %g1
     2bc:	c2 00 60 0c 	ld  [ %g1 + 0xc ], %g1
     2c0:	c2 20 e0 04 	st  %g1, [ %g3 + 4 ]
     2c4:	c2 07 bf e8 	ld  [ %fp + -24 ], %g1
     2c8:	85 28 60 04 	sll  %g1, 4, %g2
     2cc:	c2 07 bf f4 	ld  [ %fp + -12 ], %g1
     2d0:	84 00 80 01 	add  %g2, %g1, %g2
     2d4:	c2 07 bf e4 	ld  [ %fp + -28 ], %g1
     2d8:	c2 20 a0 08 	st  %g1, [ %g2 + 8 ]
     2dc:	c2 07 bf e8 	ld  [ %fp + -24 ], %g1
     2e0:	85 28 60 04 	sll  %g1, 4, %g2
     2e4:	c2 07 bf f4 	ld  [ %fp + -12 ], %g1
     2e8:	84 00 80 01 	add  %g2, %g1, %g2
     2ec:	c2 07 bf e0 	ld  [ %fp + -32 ], %g1
     2f0:	c2 20 a0 0c 	st  %g1, [ %g2 + 0xc ]
     2f4:	c2 07 bf ec 	ld  [ %fp + -20 ], %g1
     2f8:	85 28 60 04 	sll  %g1, 4, %g2
     2fc:	c2 07 bf f0 	ld  [ %fp + -16 ], %g1
     300:	82 00 80 01 	add  %g2, %g1, %g1
     304:	c2 00 60 08 	ld  [ %g1 + 8 ], %g1
     308:	c2 27 bf e4 	st  %g1, [ %fp + -28 ]
     30c:	c2 07 bf ec 	ld  [ %fp + -20 ], %g1
     310:	85 28 60 04 	sll  %g1, 4, %g2
     314:	c2 07 bf f0 	ld  [ %fp + -16 ], %g1
     318:	82 00 80 01 	add  %g2, %g1, %g1
     31c:	c2 00 60 0c 	ld  [ %g1 + 0xc ], %g1
     320:	c2 27 bf e0 	st  %g1, [ %fp + -32 ]
     324:	c2 07 bf ec 	ld  [ %fp + -20 ], %g1
     328:	85 28 60 04 	sll  %g1, 4, %g2
     32c:	c2 07 bf f0 	ld  [ %fp + -16 ], %g1
     330:	86 00 80 01 	add  %g2, %g1, %g3
     334:	c2 07 bf e8 	ld  [ %fp + -24 ], %g1
     338:	85 28 60 04 	sll  %g1, 4, %g2
     33c:	c2 07 bf f0 	ld  [ %fp + -16 ], %g1
     340:	82 00 80 01 	add  %g2, %g1, %g1
     344:	c2 00 60 08 	ld  [ %g1 + 8 ], %g1
     348:	c2 20 e0 08 	st  %g1, [ %g3 + 8 ]
     34c:	c2 07 bf ec 	ld  [ %fp + -20 ], %g1
     350:	85 28 60 04 	sll  %g1, 4, %g2
     354:	c2 07 bf f0 	ld  [ %fp + -16 ], %g1
     358:	86 00 80 01 	add  %g2, %g1, %g3
     35c:	c2 07 bf e8 	ld  [ %fp + -24 ], %g1
     360:	85 28 60 04 	sll  %g1, 4, %g2
     364:	c2 07 bf f0 	ld  [ %fp + -16 ], %g1
     368:	82 00 80 01 	add  %g2, %g1, %g1
     36c:	c2 00 60 0c 	ld  [ %g1 + 0xc ], %g1
     370:	c2 20 e0 0c 	st  %g1, [ %g3 + 0xc ]
     374:	c2 07 bf e8 	ld  [ %fp + -24 ], %g1
     378:	85 28 60 04 	sll  %g1, 4, %g2
     37c:	c2 07 bf f0 	ld  [ %fp + -16 ], %g1
     380:	84 00 80 01 	add  %g2, %g1, %g2
     384:	c2 07 bf e4 	ld  [ %fp + -28 ], %g1
     388:	c2 20 a0 08 	st  %g1, [ %g2 + 8 ]
     38c:	c2 07 bf e8 	ld  [ %fp + -24 ], %g1
     390:	85 28 60 04 	sll  %g1, 4, %g2
     394:	c2 07 bf f0 	ld  [ %fp + -16 ], %g1
     398:	84 00 80 01 	add  %g2, %g1, %g2
     39c:	c2 07 bf e0 	ld  [ %fp + -32 ], %g1
     3a0:	c2 20 a0 0c 	st  %g1, [ %g2 + 0xc ]
     3a4:	10 bf ff 3a 	b  8c <BitReverse+0x84>
     3a8:	01 00 00 00 	nop 
     3ac:	01 00 00 00 	nop 
     3b0:	c2 07 bf ec 	ld  [ %fp + -20 ], %g1
     3b4:	85 28 60 04 	sll  %g1, 4, %g2
     3b8:	c2 07 bf f4 	ld  [ %fp + -12 ], %g1
     3bc:	82 00 80 01 	add  %g2, %g1, %g1
     3c0:	c2 00 60 08 	ld  [ %g1 + 8 ], %g1
     3c4:	c2 27 bf e4 	st  %g1, [ %fp + -28 ]
     3c8:	c2 07 bf ec 	ld  [ %fp + -20 ], %g1
     3cc:	85 28 60 04 	sll  %g1, 4, %g2
     3d0:	c2 07 bf f4 	ld  [ %fp + -12 ], %g1
     3d4:	82 00 80 01 	add  %g2, %g1, %g1
     3d8:	c2 00 60 0c 	ld  [ %g1 + 0xc ], %g1
     3dc:	c2 27 bf e0 	st  %g1, [ %fp + -32 ]
     3e0:	c2 07 bf ec 	ld  [ %fp + -20 ], %g1
     3e4:	85 28 60 04 	sll  %g1, 4, %g2
     3e8:	c2 07 bf f4 	ld  [ %fp + -12 ], %g1
     3ec:	86 00 80 01 	add  %g2, %g1, %g3
     3f0:	c2 07 bf ec 	ld  [ %fp + -20 ], %g1
     3f4:	85 28 60 04 	sll  %g1, 4, %g2
     3f8:	c2 07 bf f0 	ld  [ %fp + -16 ], %g1
     3fc:	82 00 80 01 	add  %g2, %g1, %g1
     400:	c2 00 40 00 	ld  [ %g1 ], %g1
     404:	c2 20 e0 08 	st  %g1, [ %g3 + 8 ]
     408:	c2 07 bf ec 	ld  [ %fp + -20 ], %g1
     40c:	85 28 60 04 	sll  %g1, 4, %g2
     410:	c2 07 bf f4 	ld  [ %fp + -12 ], %g1
     414:	86 00 80 01 	add  %g2, %g1, %g3
     418:	c2 07 bf ec 	ld  [ %fp + -20 ], %g1
     41c:	85 28 60 04 	sll  %g1, 4, %g2
     420:	c2 07 bf f0 	ld  [ %fp + -16 ], %g1
     424:	82 00 80 01 	add  %g2, %g1, %g1
     428:	c2 00 60 04 	ld  [ %g1 + 4 ], %g1
     42c:	c2 20 e0 0c 	st  %g1, [ %g3 + 0xc ]
     430:	c2 07 bf ec 	ld  [ %fp + -20 ], %g1
     434:	85 28 60 04 	sll  %g1, 4, %g2
     438:	c2 07 bf f0 	ld  [ %fp + -16 ], %g1
     43c:	84 00 80 01 	add  %g2, %g1, %g2
     440:	c2 07 bf e4 	ld  [ %fp + -28 ], %g1
     444:	c2 20 80 00 	st  %g1, [ %g2 ]
     448:	c2 07 bf ec 	ld  [ %fp + -20 ], %g1
     44c:	85 28 60 04 	sll  %g1, 4, %g2
     450:	c2 07 bf f0 	ld  [ %fp + -16 ], %g1
     454:	84 00 80 01 	add  %g2, %g1, %g2
     458:	c2 07 bf e0 	ld  [ %fp + -32 ], %g1
     45c:	c2 20 a0 04 	st  %g1, [ %g2 + 4 ]
     460:	86 07 bf dc 	add  %fp, -36, %g3
     464:	c4 00 c0 00 	ld  [ %g3 ], %g2
     468:	82 10 00 02 	mov  %g2, %g1
     46c:	c2 08 40 00 	ldub  [ %g1 ], %g1
     470:	82 08 60 ff 	and  %g1, 0xff, %g1
     474:	c2 27 bf ec 	st  %g1, [ %fp + -20 ]
     478:	c2 07 bf ec 	ld  [ %fp + -20 ], %g1
     47c:	84 00 a0 01 	inc  %g2
     480:	c4 20 c0 00 	st  %g2, [ %g3 ]
     484:	80 a0 60 00 	cmp  %g1, 0
     488:	12 bf ff ca 	bne  3b0 <BitReverse+0x3a8>
     48c:	01 00 00 00 	nop 
     490:	81 c7 e0 08 	ret 
     494:	81 e8 00 00 	restore 

00000498 <R4FirstPass>:
     498:	9d e3 bf 78 	save  %sp, -136, %sp
     49c:	f0 27 a0 44 	st  %i0, [ %fp + 0x44 ]
     4a0:	f2 27 a0 48 	st  %i1, [ %fp + 0x48 ]
     4a4:	c2 07 a0 48 	ld  [ %fp + 0x48 ], %g1
     4a8:	80 a0 60 00 	cmp  %g1, 0
     4ac:	12 80 00 04 	bne  4bc <R4FirstPass+0x24>
     4b0:	01 00 00 00 	nop 
     4b4:	10 80 00 77 	b  690 <R4FirstPass+0x1f8>
     4b8:	01 00 00 00 	nop 
     4bc:	c4 07 a0 44 	ld  [ %fp + 0x44 ], %g2
     4c0:	c2 07 a0 44 	ld  [ %fp + 0x44 ], %g1
     4c4:	82 00 60 08 	add  %g1, 8, %g1
     4c8:	c4 00 80 00 	ld  [ %g2 ], %g2
     4cc:	c2 00 40 00 	ld  [ %g1 ], %g1
     4d0:	82 00 80 01 	add  %g2, %g1, %g1
     4d4:	c2 27 bf f4 	st  %g1, [ %fp + -12 ]
     4d8:	c4 07 a0 44 	ld  [ %fp + 0x44 ], %g2
     4dc:	c2 07 a0 44 	ld  [ %fp + 0x44 ], %g1
     4e0:	82 00 60 08 	add  %g1, 8, %g1
     4e4:	c4 00 80 00 	ld  [ %g2 ], %g2
     4e8:	c2 00 40 00 	ld  [ %g1 ], %g1
     4ec:	82 20 80 01 	sub  %g2, %g1, %g1
     4f0:	c2 27 bf ec 	st  %g1, [ %fp + -20 ]
     4f4:	c2 07 a0 44 	ld  [ %fp + 0x44 ], %g1
     4f8:	84 00 60 04 	add  %g1, 4, %g2
     4fc:	c2 07 a0 44 	ld  [ %fp + 0x44 ], %g1
     500:	82 00 60 0c 	add  %g1, 0xc, %g1
     504:	c4 00 80 00 	ld  [ %g2 ], %g2
     508:	c2 00 40 00 	ld  [ %g1 ], %g1
     50c:	82 00 80 01 	add  %g2, %g1, %g1
     510:	c2 27 bf f0 	st  %g1, [ %fp + -16 ]
     514:	c2 07 a0 44 	ld  [ %fp + 0x44 ], %g1
     518:	84 00 60 04 	add  %g1, 4, %g2
     51c:	c2 07 a0 44 	ld  [ %fp + 0x44 ], %g1
     520:	82 00 60 0c 	add  %g1, 0xc, %g1
     524:	c4 00 80 00 	ld  [ %g2 ], %g2
     528:	c2 00 40 00 	ld  [ %g1 ], %g1
     52c:	82 20 80 01 	sub  %g2, %g1, %g1
     530:	c2 27 bf e8 	st  %g1, [ %fp + -24 ]
     534:	c2 07 a0 44 	ld  [ %fp + 0x44 ], %g1
     538:	84 00 60 10 	add  %g1, 0x10, %g2
     53c:	c2 07 a0 44 	ld  [ %fp + 0x44 ], %g1
     540:	82 00 60 18 	add  %g1, 0x18, %g1
     544:	c4 00 80 00 	ld  [ %g2 ], %g2
     548:	c2 00 40 00 	ld  [ %g1 ], %g1
     54c:	82 00 80 01 	add  %g2, %g1, %g1
     550:	c2 27 bf e4 	st  %g1, [ %fp + -28 ]
     554:	c2 07 a0 44 	ld  [ %fp + 0x44 ], %g1
     558:	84 00 60 10 	add  %g1, 0x10, %g2
     55c:	c2 07 a0 44 	ld  [ %fp + 0x44 ], %g1
     560:	82 00 60 18 	add  %g1, 0x18, %g1
     564:	c4 00 80 00 	ld  [ %g2 ], %g2
     568:	c2 00 40 00 	ld  [ %g1 ], %g1
     56c:	82 20 80 01 	sub  %g2, %g1, %g1
     570:	c2 27 bf dc 	st  %g1, [ %fp + -36 ]
     574:	c2 07 a0 44 	ld  [ %fp + 0x44 ], %g1
     578:	84 00 60 14 	add  %g1, 0x14, %g2
     57c:	c2 07 a0 44 	ld  [ %fp + 0x44 ], %g1
     580:	82 00 60 1c 	add  %g1, 0x1c, %g1
     584:	c4 00 80 00 	ld  [ %g2 ], %g2
     588:	c2 00 40 00 	ld  [ %g1 ], %g1
     58c:	82 00 80 01 	add  %g2, %g1, %g1
     590:	c2 27 bf e0 	st  %g1, [ %fp + -32 ]
     594:	c2 07 a0 44 	ld  [ %fp + 0x44 ], %g1
     598:	84 00 60 14 	add  %g1, 0x14, %g2
     59c:	c2 07 a0 44 	ld  [ %fp + 0x44 ], %g1
     5a0:	82 00 60 1c 	add  %g1, 0x1c, %g1
     5a4:	c4 00 80 00 	ld  [ %g2 ], %g2
     5a8:	c2 00 40 00 	ld  [ %g1 ], %g1
     5ac:	82 20 80 01 	sub  %g2, %g1, %g1
     5b0:	c2 27 bf d8 	st  %g1, [ %fp + -40 ]
     5b4:	c6 07 a0 44 	ld  [ %fp + 0x44 ], %g3
     5b8:	c4 07 bf f4 	ld  [ %fp + -12 ], %g2
     5bc:	c2 07 bf e4 	ld  [ %fp + -28 ], %g1
     5c0:	82 00 80 01 	add  %g2, %g1, %g1
     5c4:	c2 20 c0 00 	st  %g1, [ %g3 ]
     5c8:	c2 07 a0 44 	ld  [ %fp + 0x44 ], %g1
     5cc:	86 00 60 10 	add  %g1, 0x10, %g3
     5d0:	c4 07 bf f4 	ld  [ %fp + -12 ], %g2
     5d4:	c2 07 bf e4 	ld  [ %fp + -28 ], %g1
     5d8:	82 20 80 01 	sub  %g2, %g1, %g1
     5dc:	c2 20 c0 00 	st  %g1, [ %g3 ]
     5e0:	c2 07 a0 44 	ld  [ %fp + 0x44 ], %g1
     5e4:	86 00 60 04 	add  %g1, 4, %g3
     5e8:	c4 07 bf f0 	ld  [ %fp + -16 ], %g2
     5ec:	c2 07 bf e0 	ld  [ %fp + -32 ], %g1
     5f0:	82 00 80 01 	add  %g2, %g1, %g1
     5f4:	c2 20 c0 00 	st  %g1, [ %g3 ]
     5f8:	c2 07 a0 44 	ld  [ %fp + 0x44 ], %g1
     5fc:	86 00 60 14 	add  %g1, 0x14, %g3
     600:	c4 07 bf f0 	ld  [ %fp + -16 ], %g2
     604:	c2 07 bf e0 	ld  [ %fp + -32 ], %g1
     608:	82 20 80 01 	sub  %g2, %g1, %g1
     60c:	c2 20 c0 00 	st  %g1, [ %g3 ]
     610:	c2 07 a0 44 	ld  [ %fp + 0x44 ], %g1
     614:	86 00 60 08 	add  %g1, 8, %g3
     618:	c4 07 bf ec 	ld  [ %fp + -20 ], %g2
     61c:	c2 07 bf d8 	ld  [ %fp + -40 ], %g1
     620:	82 00 80 01 	add  %g2, %g1, %g1
     624:	c2 20 c0 00 	st  %g1, [ %g3 ]
     628:	c2 07 a0 44 	ld  [ %fp + 0x44 ], %g1
     62c:	86 00 60 18 	add  %g1, 0x18, %g3
     630:	c4 07 bf ec 	ld  [ %fp + -20 ], %g2
     634:	c2 07 bf d8 	ld  [ %fp + -40 ], %g1
     638:	82 20 80 01 	sub  %g2, %g1, %g1
     63c:	c2 20 c0 00 	st  %g1, [ %g3 ]
     640:	c2 07 a0 44 	ld  [ %fp + 0x44 ], %g1
     644:	86 00 60 0c 	add  %g1, 0xc, %g3
     648:	c4 07 bf e8 	ld  [ %fp + -24 ], %g2
     64c:	c2 07 bf dc 	ld  [ %fp + -36 ], %g1
     650:	82 20 80 01 	sub  %g2, %g1, %g1
     654:	c2 20 c0 00 	st  %g1, [ %g3 ]
     658:	c2 07 a0 44 	ld  [ %fp + 0x44 ], %g1
     65c:	86 00 60 1c 	add  %g1, 0x1c, %g3
     660:	c4 07 bf e8 	ld  [ %fp + -24 ], %g2
     664:	c2 07 bf dc 	ld  [ %fp + -36 ], %g1
     668:	82 00 80 01 	add  %g2, %g1, %g1
     66c:	c2 20 c0 00 	st  %g1, [ %g3 ]
     670:	c2 07 a0 44 	ld  [ %fp + 0x44 ], %g1
     674:	82 00 60 20 	add  %g1, 0x20, %g1
     678:	c2 27 a0 44 	st  %g1, [ %fp + 0x44 ]
     67c:	c2 07 a0 48 	ld  [ %fp + 0x48 ], %g1
     680:	82 00 7f ff 	add  %g1, -1, %g1
     684:	c2 27 a0 48 	st  %g1, [ %fp + 0x48 ]
     688:	10 bf ff 87 	b  4a4 <R4FirstPass+0xc>
     68c:	01 00 00 00 	nop 
     690:	81 c7 e0 08 	ret 
     694:	81 e8 00 00 	restore 

00000698 <R8FirstPass>:
     698:	9d e3 bf 38 	save  %sp, -200, %sp
     69c:	f0 27 a0 44 	st  %i0, [ %fp + 0x44 ]
     6a0:	f2 27 a0 48 	st  %i1, [ %fp + 0x48 ]
     6a4:	c2 07 a0 48 	ld  [ %fp + 0x48 ], %g1
     6a8:	80 a0 60 00 	cmp  %g1, 0
     6ac:	12 80 00 04 	bne  6bc <R8FirstPass+0x24>
     6b0:	01 00 00 00 	nop 
     6b4:	10 80 01 63 	b  c40 <R8FirstPass+0x5a8>
     6b8:	01 00 00 00 	nop 
     6bc:	c4 07 a0 44 	ld  [ %fp + 0x44 ], %g2
     6c0:	c2 07 a0 44 	ld  [ %fp + 0x44 ], %g1
     6c4:	82 00 60 08 	add  %g1, 8, %g1
     6c8:	c4 00 80 00 	ld  [ %g2 ], %g2
     6cc:	c2 00 40 00 	ld  [ %g1 ], %g1
     6d0:	82 00 80 01 	add  %g2, %g1, %g1
     6d4:	c2 27 bf f4 	st  %g1, [ %fp + -12 ]
     6d8:	c4 07 a0 44 	ld  [ %fp + 0x44 ], %g2
     6dc:	c2 07 a0 44 	ld  [ %fp + 0x44 ], %g1
     6e0:	82 00 60 08 	add  %g1, 8, %g1
     6e4:	c4 00 80 00 	ld  [ %g2 ], %g2
     6e8:	c2 00 40 00 	ld  [ %g1 ], %g1
     6ec:	82 20 80 01 	sub  %g2, %g1, %g1
     6f0:	c2 27 bf ec 	st  %g1, [ %fp + -20 ]
     6f4:	c2 07 a0 44 	ld  [ %fp + 0x44 ], %g1
     6f8:	84 00 60 04 	add  %g1, 4, %g2
     6fc:	c2 07 a0 44 	ld  [ %fp + 0x44 ], %g1
     700:	82 00 60 0c 	add  %g1, 0xc, %g1
     704:	c4 00 80 00 	ld  [ %g2 ], %g2
     708:	c2 00 40 00 	ld  [ %g1 ], %g1
     70c:	82 00 80 01 	add  %g2, %g1, %g1
     710:	c2 27 bf f0 	st  %g1, [ %fp + -16 ]
     714:	c2 07 a0 44 	ld  [ %fp + 0x44 ], %g1
     718:	84 00 60 04 	add  %g1, 4, %g2
     71c:	c2 07 a0 44 	ld  [ %fp + 0x44 ], %g1
     720:	82 00 60 0c 	add  %g1, 0xc, %g1
     724:	c4 00 80 00 	ld  [ %g2 ], %g2
     728:	c2 00 40 00 	ld  [ %g1 ], %g1
     72c:	82 20 80 01 	sub  %g2, %g1, %g1
     730:	c2 27 bf e8 	st  %g1, [ %fp + -24 ]
     734:	c2 07 a0 44 	ld  [ %fp + 0x44 ], %g1
     738:	84 00 60 10 	add  %g1, 0x10, %g2
     73c:	c2 07 a0 44 	ld  [ %fp + 0x44 ], %g1
     740:	82 00 60 18 	add  %g1, 0x18, %g1
     744:	c4 00 80 00 	ld  [ %g2 ], %g2
     748:	c2 00 40 00 	ld  [ %g1 ], %g1
     74c:	82 00 80 01 	add  %g2, %g1, %g1
     750:	c2 27 bf e4 	st  %g1, [ %fp + -28 ]
     754:	c2 07 a0 44 	ld  [ %fp + 0x44 ], %g1
     758:	84 00 60 10 	add  %g1, 0x10, %g2
     75c:	c2 07 a0 44 	ld  [ %fp + 0x44 ], %g1
     760:	82 00 60 18 	add  %g1, 0x18, %g1
     764:	c4 00 80 00 	ld  [ %g2 ], %g2
     768:	c2 00 40 00 	ld  [ %g1 ], %g1
     76c:	82 20 80 01 	sub  %g2, %g1, %g1
     770:	c2 27 bf dc 	st  %g1, [ %fp + -36 ]
     774:	c2 07 a0 44 	ld  [ %fp + 0x44 ], %g1
     778:	84 00 60 14 	add  %g1, 0x14, %g2
     77c:	c2 07 a0 44 	ld  [ %fp + 0x44 ], %g1
     780:	82 00 60 1c 	add  %g1, 0x1c, %g1
     784:	c4 00 80 00 	ld  [ %g2 ], %g2
     788:	c2 00 40 00 	ld  [ %g1 ], %g1
     78c:	82 00 80 01 	add  %g2, %g1, %g1
     790:	c2 27 bf e0 	st  %g1, [ %fp + -32 ]
     794:	c2 07 a0 44 	ld  [ %fp + 0x44 ], %g1
     798:	84 00 60 14 	add  %g1, 0x14, %g2
     79c:	c2 07 a0 44 	ld  [ %fp + 0x44 ], %g1
     7a0:	82 00 60 1c 	add  %g1, 0x1c, %g1
     7a4:	c4 00 80 00 	ld  [ %g2 ], %g2
     7a8:	c2 00 40 00 	ld  [ %g1 ], %g1
     7ac:	82 20 80 01 	sub  %g2, %g1, %g1
     7b0:	c2 27 bf d8 	st  %g1, [ %fp + -40 ]
     7b4:	c4 07 bf f4 	ld  [ %fp + -12 ], %g2
     7b8:	c2 07 bf e4 	ld  [ %fp + -28 ], %g1
     7bc:	82 00 80 01 	add  %g2, %g1, %g1
     7c0:	c2 27 bf d4 	st  %g1, [ %fp + -44 ]
     7c4:	c4 07 bf f4 	ld  [ %fp + -12 ], %g2
     7c8:	c2 07 bf e4 	ld  [ %fp + -28 ], %g1
     7cc:	82 20 80 01 	sub  %g2, %g1, %g1
     7d0:	c2 27 bf c4 	st  %g1, [ %fp + -60 ]
     7d4:	c4 07 bf f0 	ld  [ %fp + -16 ], %g2
     7d8:	c2 07 bf e0 	ld  [ %fp + -32 ], %g1
     7dc:	82 00 80 01 	add  %g2, %g1, %g1
     7e0:	c2 27 bf d0 	st  %g1, [ %fp + -48 ]
     7e4:	c4 07 bf f0 	ld  [ %fp + -16 ], %g2
     7e8:	c2 07 bf e0 	ld  [ %fp + -32 ], %g1
     7ec:	82 20 80 01 	sub  %g2, %g1, %g1
     7f0:	c2 27 bf c0 	st  %g1, [ %fp + -64 ]
     7f4:	c4 07 bf ec 	ld  [ %fp + -20 ], %g2
     7f8:	c2 07 bf d8 	ld  [ %fp + -40 ], %g1
     7fc:	82 20 80 01 	sub  %g2, %g1, %g1
     800:	c2 27 bf cc 	st  %g1, [ %fp + -52 ]
     804:	c4 07 bf ec 	ld  [ %fp + -20 ], %g2
     808:	c2 07 bf d8 	ld  [ %fp + -40 ], %g1
     80c:	82 00 80 01 	add  %g2, %g1, %g1
     810:	c2 27 bf bc 	st  %g1, [ %fp + -68 ]
     814:	c4 07 bf e8 	ld  [ %fp + -24 ], %g2
     818:	c2 07 bf dc 	ld  [ %fp + -36 ], %g1
     81c:	82 00 80 01 	add  %g2, %g1, %g1
     820:	c2 27 bf c8 	st  %g1, [ %fp + -56 ]
     824:	c4 07 bf e8 	ld  [ %fp + -24 ], %g2
     828:	c2 07 bf dc 	ld  [ %fp + -36 ], %g1
     82c:	82 20 80 01 	sub  %g2, %g1, %g1
     830:	c2 27 bf b8 	st  %g1, [ %fp + -72 ]
     834:	c2 07 a0 44 	ld  [ %fp + 0x44 ], %g1
     838:	84 00 60 20 	add  %g1, 0x20, %g2
     83c:	c2 07 a0 44 	ld  [ %fp + 0x44 ], %g1
     840:	82 00 60 28 	add  %g1, 0x28, %g1
     844:	c4 00 80 00 	ld  [ %g2 ], %g2
     848:	c2 00 40 00 	ld  [ %g1 ], %g1
     84c:	82 00 80 01 	add  %g2, %g1, %g1
     850:	c2 27 bf f4 	st  %g1, [ %fp + -12 ]
     854:	c2 07 a0 44 	ld  [ %fp + 0x44 ], %g1
     858:	84 00 60 20 	add  %g1, 0x20, %g2
     85c:	c2 07 a0 44 	ld  [ %fp + 0x44 ], %g1
     860:	82 00 60 28 	add  %g1, 0x28, %g1
     864:	c4 00 80 00 	ld  [ %g2 ], %g2
     868:	c2 00 40 00 	ld  [ %g1 ], %g1
     86c:	82 20 80 01 	sub  %g2, %g1, %g1
     870:	c2 27 bf ec 	st  %g1, [ %fp + -20 ]
     874:	c2 07 a0 44 	ld  [ %fp + 0x44 ], %g1
     878:	84 00 60 24 	add  %g1, 0x24, %g2
     87c:	c2 07 a0 44 	ld  [ %fp + 0x44 ], %g1
     880:	82 00 60 2c 	add  %g1, 0x2c, %g1
     884:	c4 00 80 00 	ld  [ %g2 ], %g2
     888:	c2 00 40 00 	ld  [ %g1 ], %g1
     88c:	82 00 80 01 	add  %g2, %g1, %g1
     890:	c2 27 bf f0 	st  %g1, [ %fp + -16 ]
     894:	c2 07 a0 44 	ld  [ %fp + 0x44 ], %g1
     898:	84 00 60 24 	add  %g1, 0x24, %g2
     89c:	c2 07 a0 44 	ld  [ %fp + 0x44 ], %g1
     8a0:	82 00 60 2c 	add  %g1, 0x2c, %g1
     8a4:	c4 00 80 00 	ld  [ %g2 ], %g2
     8a8:	c2 00 40 00 	ld  [ %g1 ], %g1
     8ac:	82 20 80 01 	sub  %g2, %g1, %g1
     8b0:	c2 27 bf e8 	st  %g1, [ %fp + -24 ]
     8b4:	c2 07 a0 44 	ld  [ %fp + 0x44 ], %g1
     8b8:	84 00 60 30 	add  %g1, 0x30, %g2
     8bc:	c2 07 a0 44 	ld  [ %fp + 0x44 ], %g1
     8c0:	82 00 60 38 	add  %g1, 0x38, %g1
     8c4:	c4 00 80 00 	ld  [ %g2 ], %g2
     8c8:	c2 00 40 00 	ld  [ %g1 ], %g1
     8cc:	82 00 80 01 	add  %g2, %g1, %g1
     8d0:	c2 27 bf e4 	st  %g1, [ %fp + -28 ]
     8d4:	c2 07 a0 44 	ld  [ %fp + 0x44 ], %g1
     8d8:	84 00 60 30 	add  %g1, 0x30, %g2
     8dc:	c2 07 a0 44 	ld  [ %fp + 0x44 ], %g1
     8e0:	82 00 60 38 	add  %g1, 0x38, %g1
     8e4:	c4 00 80 00 	ld  [ %g2 ], %g2
     8e8:	c2 00 40 00 	ld  [ %g1 ], %g1
     8ec:	82 20 80 01 	sub  %g2, %g1, %g1
     8f0:	c2 27 bf dc 	st  %g1, [ %fp + -36 ]
     8f4:	c2 07 a0 44 	ld  [ %fp + 0x44 ], %g1
     8f8:	84 00 60 34 	add  %g1, 0x34, %g2
     8fc:	c2 07 a0 44 	ld  [ %fp + 0x44 ], %g1
     900:	82 00 60 3c 	add  %g1, 0x3c, %g1
     904:	c4 00 80 00 	ld  [ %g2 ], %g2
     908:	c2 00 40 00 	ld  [ %g1 ], %g1
     90c:	82 00 80 01 	add  %g2, %g1, %g1
     910:	c2 27 bf e0 	st  %g1, [ %fp + -32 ]
     914:	c2 07 a0 44 	ld  [ %fp + 0x44 ], %g1
     918:	84 00 60 34 	add  %g1, 0x34, %g2
     91c:	c2 07 a0 44 	ld  [ %fp + 0x44 ], %g1
     920:	82 00 60 3c 	add  %g1, 0x3c, %g1
     924:	c4 00 80 00 	ld  [ %g2 ], %g2
     928:	c2 00 40 00 	ld  [ %g1 ], %g1
     92c:	82 20 80 01 	sub  %g2, %g1, %g1
     930:	c2 27 bf d8 	st  %g1, [ %fp + -40 ]
     934:	c4 07 bf f4 	ld  [ %fp + -12 ], %g2
     938:	c2 07 bf e4 	ld  [ %fp + -28 ], %g1
     93c:	82 00 80 01 	add  %g2, %g1, %g1
     940:	83 38 60 01 	sra  %g1, 1, %g1
     944:	c2 27 bf b4 	st  %g1, [ %fp + -76 ]
     948:	c4 07 bf f4 	ld  [ %fp + -12 ], %g2
     94c:	c2 07 bf e4 	ld  [ %fp + -28 ], %g1
     950:	82 20 80 01 	sub  %g2, %g1, %g1
     954:	83 38 60 01 	sra  %g1, 1, %g1
     958:	c2 27 bf a4 	st  %g1, [ %fp + -92 ]
     95c:	c4 07 bf f0 	ld  [ %fp + -16 ], %g2
     960:	c2 07 bf e0 	ld  [ %fp + -32 ], %g1
     964:	82 00 80 01 	add  %g2, %g1, %g1
     968:	83 38 60 01 	sra  %g1, 1, %g1
     96c:	c2 27 bf b0 	st  %g1, [ %fp + -80 ]
     970:	c4 07 bf f0 	ld  [ %fp + -16 ], %g2
     974:	c2 07 bf e0 	ld  [ %fp + -32 ], %g1
     978:	82 20 80 01 	sub  %g2, %g1, %g1
     97c:	83 38 60 01 	sra  %g1, 1, %g1
     980:	c2 27 bf a0 	st  %g1, [ %fp + -96 ]
     984:	c6 07 a0 44 	ld  [ %fp + 0x44 ], %g3
     988:	c2 07 bf d4 	ld  [ %fp + -44 ], %g1
     98c:	85 38 60 01 	sra  %g1, 1, %g2
     990:	c2 07 bf b4 	ld  [ %fp + -76 ], %g1
     994:	82 00 80 01 	add  %g2, %g1, %g1
     998:	c2 20 c0 00 	st  %g1, [ %g3 ]
     99c:	c2 07 a0 44 	ld  [ %fp + 0x44 ], %g1
     9a0:	86 00 60 20 	add  %g1, 0x20, %g3
     9a4:	c2 07 bf d4 	ld  [ %fp + -44 ], %g1
     9a8:	85 38 60 01 	sra  %g1, 1, %g2
     9ac:	c2 07 bf b4 	ld  [ %fp + -76 ], %g1
     9b0:	82 20 80 01 	sub  %g2, %g1, %g1
     9b4:	c2 20 c0 00 	st  %g1, [ %g3 ]
     9b8:	c2 07 a0 44 	ld  [ %fp + 0x44 ], %g1
     9bc:	86 00 60 04 	add  %g1, 4, %g3
     9c0:	c2 07 bf d0 	ld  [ %fp + -48 ], %g1
     9c4:	85 38 60 01 	sra  %g1, 1, %g2
     9c8:	c2 07 bf b0 	ld  [ %fp + -80 ], %g1
     9cc:	82 00 80 01 	add  %g2, %g1, %g1
     9d0:	c2 20 c0 00 	st  %g1, [ %g3 ]
     9d4:	c2 07 a0 44 	ld  [ %fp + 0x44 ], %g1
     9d8:	86 00 60 24 	add  %g1, 0x24, %g3
     9dc:	c2 07 bf d0 	ld  [ %fp + -48 ], %g1
     9e0:	85 38 60 01 	sra  %g1, 1, %g2
     9e4:	c2 07 bf b0 	ld  [ %fp + -80 ], %g1
     9e8:	82 20 80 01 	sub  %g2, %g1, %g1
     9ec:	c2 20 c0 00 	st  %g1, [ %g3 ]
     9f0:	c2 07 a0 44 	ld  [ %fp + 0x44 ], %g1
     9f4:	86 00 60 10 	add  %g1, 0x10, %g3
     9f8:	c2 07 bf c4 	ld  [ %fp + -60 ], %g1
     9fc:	85 38 60 01 	sra  %g1, 1, %g2
     a00:	c2 07 bf a0 	ld  [ %fp + -96 ], %g1
     a04:	82 00 80 01 	add  %g2, %g1, %g1
     a08:	c2 20 c0 00 	st  %g1, [ %g3 ]
     a0c:	c2 07 a0 44 	ld  [ %fp + 0x44 ], %g1
     a10:	86 00 60 30 	add  %g1, 0x30, %g3
     a14:	c2 07 bf c4 	ld  [ %fp + -60 ], %g1
     a18:	85 38 60 01 	sra  %g1, 1, %g2
     a1c:	c2 07 bf a0 	ld  [ %fp + -96 ], %g1
     a20:	82 20 80 01 	sub  %g2, %g1, %g1
     a24:	c2 20 c0 00 	st  %g1, [ %g3 ]
     a28:	c2 07 a0 44 	ld  [ %fp + 0x44 ], %g1
     a2c:	86 00 60 14 	add  %g1, 0x14, %g3
     a30:	c2 07 bf c0 	ld  [ %fp + -64 ], %g1
     a34:	85 38 60 01 	sra  %g1, 1, %g2
     a38:	c2 07 bf a4 	ld  [ %fp + -92 ], %g1
     a3c:	82 20 80 01 	sub  %g2, %g1, %g1
     a40:	c2 20 c0 00 	st  %g1, [ %g3 ]
     a44:	c2 07 a0 44 	ld  [ %fp + 0x44 ], %g1
     a48:	86 00 60 34 	add  %g1, 0x34, %g3
     a4c:	c2 07 bf c0 	ld  [ %fp + -64 ], %g1
     a50:	85 38 60 01 	sra  %g1, 1, %g2
     a54:	c2 07 bf a4 	ld  [ %fp + -92 ], %g1
     a58:	82 00 80 01 	add  %g2, %g1, %g1
     a5c:	c2 20 c0 00 	st  %g1, [ %g3 ]
     a60:	c4 07 bf ec 	ld  [ %fp + -20 ], %g2
     a64:	c2 07 bf d8 	ld  [ %fp + -40 ], %g1
     a68:	82 20 80 01 	sub  %g2, %g1, %g1
     a6c:	c2 27 bf f4 	st  %g1, [ %fp + -12 ]
     a70:	c4 07 bf ec 	ld  [ %fp + -20 ], %g2
     a74:	c2 07 bf d8 	ld  [ %fp + -40 ], %g1
     a78:	82 00 80 01 	add  %g2, %g1, %g1
     a7c:	c2 27 bf e4 	st  %g1, [ %fp + -28 ]
     a80:	c4 07 bf e8 	ld  [ %fp + -24 ], %g2
     a84:	c2 07 bf dc 	ld  [ %fp + -36 ], %g1
     a88:	82 00 80 01 	add  %g2, %g1, %g1
     a8c:	c2 27 bf f0 	st  %g1, [ %fp + -16 ]
     a90:	c4 07 bf e8 	ld  [ %fp + -24 ], %g2
     a94:	c2 07 bf dc 	ld  [ %fp + -36 ], %g1
     a98:	82 20 80 01 	sub  %g2, %g1, %g1
     a9c:	c2 27 bf e0 	st  %g1, [ %fp + -32 ]
     aa0:	c4 07 bf f4 	ld  [ %fp + -12 ], %g2
     aa4:	c2 07 bf f0 	ld  [ %fp + -16 ], %g1
     aa8:	84 20 80 01 	sub  %g2, %g1, %g2
     aac:	03 16 a0 9e 	sethi  %hi(0x5a827800), %g1
     ab0:	90 10 61 9a 	or  %g1, 0x19a, %o0	! 5a82799a <MULSHIFT32+0x5a826706>
     ab4:	92 10 00 02 	mov  %g2, %o1
     ab8:	40 00 01 f7 	call  1294 <MULSHIFT32>
     abc:	01 00 00 00 	nop 
     ac0:	82 10 00 08 	mov  %o0, %g1
     ac4:	c2 27 bf ac 	st  %g1, [ %fp + -84 ]
     ac8:	c4 07 bf f4 	ld  [ %fp + -12 ], %g2
     acc:	c2 07 bf f0 	ld  [ %fp + -16 ], %g1
     ad0:	84 00 80 01 	add  %g2, %g1, %g2
     ad4:	03 16 a0 9e 	sethi  %hi(0x5a827800), %g1
     ad8:	90 10 61 9a 	or  %g1, 0x19a, %o0	! 5a82799a <MULSHIFT32+0x5a826706>
     adc:	92 10 00 02 	mov  %g2, %o1
     ae0:	40 00 01 ed 	call  1294 <MULSHIFT32>
     ae4:	01 00 00 00 	nop 
     ae8:	82 10 00 08 	mov  %o0, %g1
     aec:	c2 27 bf a8 	st  %g1, [ %fp + -88 ]
     af0:	c4 07 bf e4 	ld  [ %fp + -28 ], %g2
     af4:	c2 07 bf e0 	ld  [ %fp + -32 ], %g1
     af8:	84 20 80 01 	sub  %g2, %g1, %g2
     afc:	03 16 a0 9e 	sethi  %hi(0x5a827800), %g1
     b00:	90 10 61 9a 	or  %g1, 0x19a, %o0	! 5a82799a <MULSHIFT32+0x5a826706>
     b04:	92 10 00 02 	mov  %g2, %o1
     b08:	40 00 01 e3 	call  1294 <MULSHIFT32>
     b0c:	01 00 00 00 	nop 
     b10:	82 10 00 08 	mov  %o0, %g1
     b14:	c2 27 bf 9c 	st  %g1, [ %fp + -100 ]
     b18:	c4 07 bf e4 	ld  [ %fp + -28 ], %g2
     b1c:	c2 07 bf e0 	ld  [ %fp + -32 ], %g1
     b20:	84 00 80 01 	add  %g2, %g1, %g2
     b24:	03 16 a0 9e 	sethi  %hi(0x5a827800), %g1
     b28:	90 10 61 9a 	or  %g1, 0x19a, %o0	! 5a82799a <MULSHIFT32+0x5a826706>
     b2c:	92 10 00 02 	mov  %g2, %o1
     b30:	40 00 01 d9 	call  1294 <MULSHIFT32>
     b34:	01 00 00 00 	nop 
     b38:	82 10 00 08 	mov  %o0, %g1
     b3c:	c2 27 bf 98 	st  %g1, [ %fp + -104 ]
     b40:	c2 07 a0 44 	ld  [ %fp + 0x44 ], %g1
     b44:	86 00 60 18 	add  %g1, 0x18, %g3
     b48:	c2 07 bf cc 	ld  [ %fp + -52 ], %g1
     b4c:	85 38 60 01 	sra  %g1, 1, %g2
     b50:	c2 07 bf ac 	ld  [ %fp + -84 ], %g1
     b54:	82 20 80 01 	sub  %g2, %g1, %g1
     b58:	c2 20 c0 00 	st  %g1, [ %g3 ]
     b5c:	c2 07 a0 44 	ld  [ %fp + 0x44 ], %g1
     b60:	86 00 60 38 	add  %g1, 0x38, %g3
     b64:	c2 07 bf cc 	ld  [ %fp + -52 ], %g1
     b68:	85 38 60 01 	sra  %g1, 1, %g2
     b6c:	c2 07 bf ac 	ld  [ %fp + -84 ], %g1
     b70:	82 00 80 01 	add  %g2, %g1, %g1
     b74:	c2 20 c0 00 	st  %g1, [ %g3 ]
     b78:	c2 07 a0 44 	ld  [ %fp + 0x44 ], %g1
     b7c:	86 00 60 1c 	add  %g1, 0x1c, %g3
     b80:	c2 07 bf c8 	ld  [ %fp + -56 ], %g1
     b84:	85 38 60 01 	sra  %g1, 1, %g2
     b88:	c2 07 bf a8 	ld  [ %fp + -88 ], %g1
     b8c:	82 20 80 01 	sub  %g2, %g1, %g1
     b90:	c2 20 c0 00 	st  %g1, [ %g3 ]
     b94:	c2 07 a0 44 	ld  [ %fp + 0x44 ], %g1
     b98:	86 00 60 3c 	add  %g1, 0x3c, %g3
     b9c:	c2 07 bf c8 	ld  [ %fp + -56 ], %g1
     ba0:	85 38 60 01 	sra  %g1, 1, %g2
     ba4:	c2 07 bf a8 	ld  [ %fp + -88 ], %g1
     ba8:	82 00 80 01 	add  %g2, %g1, %g1
     bac:	c2 20 c0 00 	st  %g1, [ %g3 ]
     bb0:	c2 07 a0 44 	ld  [ %fp + 0x44 ], %g1
     bb4:	86 00 60 08 	add  %g1, 8, %g3
     bb8:	c2 07 bf bc 	ld  [ %fp + -68 ], %g1
     bbc:	85 38 60 01 	sra  %g1, 1, %g2
     bc0:	c2 07 bf 98 	ld  [ %fp + -104 ], %g1
     bc4:	82 00 80 01 	add  %g2, %g1, %g1
     bc8:	c2 20 c0 00 	st  %g1, [ %g3 ]
     bcc:	c2 07 a0 44 	ld  [ %fp + 0x44 ], %g1
     bd0:	86 00 60 28 	add  %g1, 0x28, %g3
     bd4:	c2 07 bf bc 	ld  [ %fp + -68 ], %g1
     bd8:	85 38 60 01 	sra  %g1, 1, %g2
     bdc:	c2 07 bf 98 	ld  [ %fp + -104 ], %g1
     be0:	82 20 80 01 	sub  %g2, %g1, %g1
     be4:	c2 20 c0 00 	st  %g1, [ %g3 ]
     be8:	c2 07 a0 44 	ld  [ %fp + 0x44 ], %g1
     bec:	86 00 60 0c 	add  %g1, 0xc, %g3
     bf0:	c2 07 bf b8 	ld  [ %fp + -72 ], %g1
     bf4:	85 38 60 01 	sra  %g1, 1, %g2
     bf8:	c2 07 bf 9c 	ld  [ %fp + -100 ], %g1
     bfc:	82 20 80 01 	sub  %g2, %g1, %g1
     c00:	c2 20 c0 00 	st  %g1, [ %g3 ]
     c04:	c2 07 a0 44 	ld  [ %fp + 0x44 ], %g1
     c08:	86 00 60 2c 	add  %g1, 0x2c, %g3
     c0c:	c2 07 bf b8 	ld  [ %fp + -72 ], %g1
     c10:	85 38 60 01 	sra  %g1, 1, %g2
     c14:	c2 07 bf 9c 	ld  [ %fp + -100 ], %g1
     c18:	82 00 80 01 	add  %g2, %g1, %g1
     c1c:	c2 20 c0 00 	st  %g1, [ %g3 ]
     c20:	c2 07 a0 44 	ld  [ %fp + 0x44 ], %g1
     c24:	82 00 60 40 	add  %g1, 0x40, %g1
     c28:	c2 27 a0 44 	st  %g1, [ %fp + 0x44 ]
     c2c:	c2 07 a0 48 	ld  [ %fp + 0x48 ], %g1
     c30:	82 00 7f ff 	add  %g1, -1, %g1
     c34:	c2 27 a0 48 	st  %g1, [ %fp + 0x48 ]
     c38:	10 bf fe 9b 	b  6a4 <R8FirstPass+0xc>
     c3c:	01 00 00 00 	nop 
     c40:	81 c7 e0 08 	ret 
     c44:	81 e8 00 00 	restore 

00000c48 <R4Core>:
     c48:	9d e3 bf 50 	save  %sp, -176, %sp
     c4c:	f0 27 a0 44 	st  %i0, [ %fp + 0x44 ]
     c50:	f2 27 a0 48 	st  %i1, [ %fp + 0x48 ]
     c54:	f4 27 a0 4c 	st  %i2, [ %fp + 0x4c ]
     c58:	f6 27 a0 50 	st  %i3, [ %fp + 0x50 ]
     c5c:	c2 07 a0 48 	ld  [ %fp + 0x48 ], %g1
     c60:	80 a0 60 00 	cmp  %g1, 0
     c64:	12 80 00 04 	bne  c74 <R4Core+0x2c>
     c68:	01 00 00 00 	nop 
     c6c:	10 80 01 44 	b  117c <R4Core+0x534>
     c70:	01 00 00 00 	nop 
     c74:	c2 07 a0 4c 	ld  [ %fp + 0x4c ], %g1
     c78:	82 00 40 01 	add  %g1, %g1, %g1
     c7c:	c2 27 bf b8 	st  %g1, [ %fp + -72 ]
     c80:	c2 07 a0 44 	ld  [ %fp + 0x44 ], %g1
     c84:	c2 27 bf b4 	st  %g1, [ %fp + -76 ]
     c88:	c2 07 a0 48 	ld  [ %fp + 0x48 ], %g1
     c8c:	c2 27 bf c0 	st  %g1, [ %fp + -64 ]
     c90:	c2 07 bf c0 	ld  [ %fp + -64 ], %g1
     c94:	80 a0 60 00 	cmp  %g1, 0
     c98:	12 80 00 04 	bne  ca8 <R4Core+0x60>
     c9c:	01 00 00 00 	nop 
     ca0:	10 80 01 27 	b  113c <R4Core+0x4f4>
     ca4:	01 00 00 00 	nop 
     ca8:	c2 07 a0 50 	ld  [ %fp + 0x50 ], %g1
     cac:	c2 27 bf b0 	st  %g1, [ %fp + -80 ]
     cb0:	c2 07 a0 4c 	ld  [ %fp + 0x4c ], %g1
     cb4:	c2 27 bf bc 	st  %g1, [ %fp + -68 ]
     cb8:	c2 07 bf bc 	ld  [ %fp + -68 ], %g1
     cbc:	80 a0 60 00 	cmp  %g1, 0
     cc0:	12 80 00 04 	bne  cd0 <R4Core+0x88>
     cc4:	01 00 00 00 	nop 
     cc8:	10 80 01 10 	b  1108 <R4Core+0x4c0>
     ccc:	01 00 00 00 	nop 
     cd0:	c2 07 bf b4 	ld  [ %fp + -76 ], %g1
     cd4:	c2 00 40 00 	ld  [ %g1 ], %g1
     cd8:	c2 27 bf f4 	st  %g1, [ %fp + -12 ]
     cdc:	c2 07 bf b4 	ld  [ %fp + -76 ], %g1
     ce0:	82 00 60 04 	add  %g1, 4, %g1
     ce4:	c2 00 40 00 	ld  [ %g1 ], %g1
     ce8:	c2 27 bf f0 	st  %g1, [ %fp + -16 ]
     cec:	c2 07 bf b8 	ld  [ %fp + -72 ], %g1
     cf0:	85 28 60 02 	sll  %g1, 2, %g2
     cf4:	c2 07 bf b4 	ld  [ %fp + -76 ], %g1
     cf8:	82 00 40 02 	add  %g1, %g2, %g1
     cfc:	c2 27 bf b4 	st  %g1, [ %fp + -76 ]
     d00:	c2 07 bf b0 	ld  [ %fp + -80 ], %g1
     d04:	c2 00 40 00 	ld  [ %g1 ], %g1
     d08:	c2 27 bf c8 	st  %g1, [ %fp + -56 ]
     d0c:	c2 07 bf b0 	ld  [ %fp + -80 ], %g1
     d10:	82 00 60 04 	add  %g1, 4, %g1
     d14:	c2 00 40 00 	ld  [ %g1 ], %g1
     d18:	c2 27 bf c4 	st  %g1, [ %fp + -60 ]
     d1c:	c2 07 bf b4 	ld  [ %fp + -76 ], %g1
     d20:	c2 00 40 00 	ld  [ %g1 ], %g1
     d24:	c2 27 bf ec 	st  %g1, [ %fp + -20 ]
     d28:	c2 07 bf b4 	ld  [ %fp + -76 ], %g1
     d2c:	82 00 60 04 	add  %g1, 4, %g1
     d30:	c2 00 40 00 	ld  [ %g1 ], %g1
     d34:	c2 27 bf e8 	st  %g1, [ %fp + -24 ]
     d38:	c2 07 bf c4 	ld  [ %fp + -60 ], %g1
     d3c:	84 00 40 01 	add  %g1, %g1, %g2
     d40:	c2 07 bf c8 	ld  [ %fp + -56 ], %g1
     d44:	82 00 40 02 	add  %g1, %g2, %g1
     d48:	c2 27 bf cc 	st  %g1, [ %fp + -52 ]
     d4c:	c4 07 bf ec 	ld  [ %fp + -20 ], %g2
     d50:	c2 07 bf e8 	ld  [ %fp + -24 ], %g1
     d54:	82 00 80 01 	add  %g2, %g1, %g1
     d58:	d0 07 bf c4 	ld  [ %fp + -60 ], %o0
     d5c:	92 10 00 01 	mov  %g1, %o1
     d60:	40 00 01 4d 	call  1294 <MULSHIFT32>
     d64:	01 00 00 00 	nop 
     d68:	82 10 00 08 	mov  %o0, %g1
     d6c:	c2 27 bf d4 	st  %g1, [ %fp + -44 ]
     d70:	d0 07 bf cc 	ld  [ %fp + -52 ], %o0
     d74:	d2 07 bf ec 	ld  [ %fp + -20 ], %o1
     d78:	40 00 01 47 	call  1294 <MULSHIFT32>
     d7c:	01 00 00 00 	nop 
     d80:	84 10 00 08 	mov  %o0, %g2
     d84:	c2 07 bf d4 	ld  [ %fp + -44 ], %g1
     d88:	82 20 80 01 	sub  %g2, %g1, %g1
     d8c:	c2 27 bf ec 	st  %g1, [ %fp + -20 ]
     d90:	d0 07 bf c8 	ld  [ %fp + -56 ], %o0
     d94:	d2 07 bf e8 	ld  [ %fp + -24 ], %o1
     d98:	40 00 01 3f 	call  1294 <MULSHIFT32>
     d9c:	01 00 00 00 	nop 
     da0:	84 10 00 08 	mov  %o0, %g2
     da4:	c2 07 bf d4 	ld  [ %fp + -44 ], %g1
     da8:	82 00 80 01 	add  %g2, %g1, %g1
     dac:	c2 27 bf e8 	st  %g1, [ %fp + -24 ]
     db0:	c2 07 bf b8 	ld  [ %fp + -72 ], %g1
     db4:	85 28 60 02 	sll  %g1, 2, %g2
     db8:	c2 07 bf b4 	ld  [ %fp + -76 ], %g1
     dbc:	82 00 40 02 	add  %g1, %g2, %g1
     dc0:	c2 27 bf b4 	st  %g1, [ %fp + -76 ]
     dc4:	c2 07 bf b0 	ld  [ %fp + -80 ], %g1
     dc8:	82 00 60 08 	add  %g1, 8, %g1
     dcc:	c2 00 40 00 	ld  [ %g1 ], %g1
     dd0:	c2 27 bf c8 	st  %g1, [ %fp + -56 ]
     dd4:	c2 07 bf b0 	ld  [ %fp + -80 ], %g1
     dd8:	82 00 60 0c 	add  %g1, 0xc, %g1
     ddc:	c2 00 40 00 	ld  [ %g1 ], %g1
     de0:	c2 27 bf c4 	st  %g1, [ %fp + -60 ]
     de4:	c2 07 bf b4 	ld  [ %fp + -76 ], %g1
     de8:	c2 00 40 00 	ld  [ %g1 ], %g1
     dec:	c2 27 bf e4 	st  %g1, [ %fp + -28 ]
     df0:	c2 07 bf b4 	ld  [ %fp + -76 ], %g1
     df4:	82 00 60 04 	add  %g1, 4, %g1
     df8:	c2 00 40 00 	ld  [ %g1 ], %g1
     dfc:	c2 27 bf e0 	st  %g1, [ %fp + -32 ]
     e00:	c2 07 bf c4 	ld  [ %fp + -60 ], %g1
     e04:	84 00 40 01 	add  %g1, %g1, %g2
     e08:	c2 07 bf c8 	ld  [ %fp + -56 ], %g1
     e0c:	82 00 40 02 	add  %g1, %g2, %g1
     e10:	c2 27 bf cc 	st  %g1, [ %fp + -52 ]
     e14:	c4 07 bf e4 	ld  [ %fp + -28 ], %g2
     e18:	c2 07 bf e0 	ld  [ %fp + -32 ], %g1
     e1c:	82 00 80 01 	add  %g2, %g1, %g1
     e20:	d0 07 bf c4 	ld  [ %fp + -60 ], %o0
     e24:	92 10 00 01 	mov  %g1, %o1
     e28:	40 00 01 1b 	call  1294 <MULSHIFT32>
     e2c:	01 00 00 00 	nop 
     e30:	82 10 00 08 	mov  %o0, %g1
     e34:	c2 27 bf d4 	st  %g1, [ %fp + -44 ]
     e38:	d0 07 bf cc 	ld  [ %fp + -52 ], %o0
     e3c:	d2 07 bf e4 	ld  [ %fp + -28 ], %o1
     e40:	40 00 01 15 	call  1294 <MULSHIFT32>
     e44:	01 00 00 00 	nop 
     e48:	84 10 00 08 	mov  %o0, %g2
     e4c:	c2 07 bf d4 	ld  [ %fp + -44 ], %g1
     e50:	82 20 80 01 	sub  %g2, %g1, %g1
     e54:	c2 27 bf e4 	st  %g1, [ %fp + -28 ]
     e58:	d0 07 bf c8 	ld  [ %fp + -56 ], %o0
     e5c:	d2 07 bf e0 	ld  [ %fp + -32 ], %o1
     e60:	40 00 01 0d 	call  1294 <MULSHIFT32>
     e64:	01 00 00 00 	nop 
     e68:	84 10 00 08 	mov  %o0, %g2
     e6c:	c2 07 bf d4 	ld  [ %fp + -44 ], %g1
     e70:	82 00 80 01 	add  %g2, %g1, %g1
     e74:	c2 27 bf e0 	st  %g1, [ %fp + -32 ]
     e78:	c2 07 bf b8 	ld  [ %fp + -72 ], %g1
     e7c:	85 28 60 02 	sll  %g1, 2, %g2
     e80:	c2 07 bf b4 	ld  [ %fp + -76 ], %g1
     e84:	82 00 40 02 	add  %g1, %g2, %g1
     e88:	c2 27 bf b4 	st  %g1, [ %fp + -76 ]
     e8c:	c2 07 bf b0 	ld  [ %fp + -80 ], %g1
     e90:	82 00 60 10 	add  %g1, 0x10, %g1
     e94:	c2 00 40 00 	ld  [ %g1 ], %g1
     e98:	c2 27 bf c8 	st  %g1, [ %fp + -56 ]
     e9c:	c2 07 bf b0 	ld  [ %fp + -80 ], %g1
     ea0:	82 00 60 14 	add  %g1, 0x14, %g1
     ea4:	c2 00 40 00 	ld  [ %g1 ], %g1
     ea8:	c2 27 bf c4 	st  %g1, [ %fp + -60 ]
     eac:	c2 07 bf b4 	ld  [ %fp + -76 ], %g1
     eb0:	c2 00 40 00 	ld  [ %g1 ], %g1
     eb4:	c2 27 bf dc 	st  %g1, [ %fp + -36 ]
     eb8:	c2 07 bf b4 	ld  [ %fp + -76 ], %g1
     ebc:	82 00 60 04 	add  %g1, 4, %g1
     ec0:	c2 00 40 00 	ld  [ %g1 ], %g1
     ec4:	c2 27 bf d8 	st  %g1, [ %fp + -40 ]
     ec8:	c2 07 bf c4 	ld  [ %fp + -60 ], %g1
     ecc:	84 00 40 01 	add  %g1, %g1, %g2
     ed0:	c2 07 bf c8 	ld  [ %fp + -56 ], %g1
     ed4:	82 00 40 02 	add  %g1, %g2, %g1
     ed8:	c2 27 bf cc 	st  %g1, [ %fp + -52 ]
     edc:	c4 07 bf dc 	ld  [ %fp + -36 ], %g2
     ee0:	c2 07 bf d8 	ld  [ %fp + -40 ], %g1
     ee4:	82 00 80 01 	add  %g2, %g1, %g1
     ee8:	d0 07 bf c4 	ld  [ %fp + -60 ], %o0
     eec:	92 10 00 01 	mov  %g1, %o1
     ef0:	40 00 00 e9 	call  1294 <MULSHIFT32>
     ef4:	01 00 00 00 	nop 
     ef8:	82 10 00 08 	mov  %o0, %g1
     efc:	c2 27 bf d4 	st  %g1, [ %fp + -44 ]
     f00:	d0 07 bf cc 	ld  [ %fp + -52 ], %o0
     f04:	d2 07 bf dc 	ld  [ %fp + -36 ], %o1
     f08:	40 00 00 e3 	call  1294 <MULSHIFT32>
     f0c:	01 00 00 00 	nop 
     f10:	84 10 00 08 	mov  %o0, %g2
     f14:	c2 07 bf d4 	ld  [ %fp + -44 ], %g1
     f18:	82 20 80 01 	sub  %g2, %g1, %g1
     f1c:	c2 27 bf dc 	st  %g1, [ %fp + -36 ]
     f20:	d0 07 bf c8 	ld  [ %fp + -56 ], %o0
     f24:	d2 07 bf d8 	ld  [ %fp + -40 ], %o1
     f28:	40 00 00 db 	call  1294 <MULSHIFT32>
     f2c:	01 00 00 00 	nop 
     f30:	84 10 00 08 	mov  %o0, %g2
     f34:	c2 07 bf d4 	ld  [ %fp + -44 ], %g1
     f38:	82 00 80 01 	add  %g2, %g1, %g1
     f3c:	c2 27 bf d8 	st  %g1, [ %fp + -40 ]
     f40:	c2 07 bf b0 	ld  [ %fp + -80 ], %g1
     f44:	82 00 60 18 	add  %g1, 0x18, %g1
     f48:	c2 27 bf b0 	st  %g1, [ %fp + -80 ]
     f4c:	c2 07 bf f4 	ld  [ %fp + -12 ], %g1
     f50:	c2 27 bf d4 	st  %g1, [ %fp + -44 ]
     f54:	c2 07 bf f0 	ld  [ %fp + -16 ], %g1
     f58:	c2 27 bf d0 	st  %g1, [ %fp + -48 ]
     f5c:	c2 07 bf d4 	ld  [ %fp + -44 ], %g1
     f60:	85 38 60 02 	sra  %g1, 2, %g2
     f64:	c2 07 bf ec 	ld  [ %fp + -20 ], %g1
     f68:	82 20 80 01 	sub  %g2, %g1, %g1
     f6c:	c2 27 bf f4 	st  %g1, [ %fp + -12 ]
     f70:	c2 07 bf d0 	ld  [ %fp + -48 ], %g1
     f74:	85 38 60 02 	sra  %g1, 2, %g2
     f78:	c2 07 bf e8 	ld  [ %fp + -24 ], %g1
     f7c:	82 20 80 01 	sub  %g2, %g1, %g1
     f80:	c2 27 bf f0 	st  %g1, [ %fp + -16 ]
     f84:	c2 07 bf d4 	ld  [ %fp + -44 ], %g1
     f88:	85 38 60 02 	sra  %g1, 2, %g2
     f8c:	c2 07 bf ec 	ld  [ %fp + -20 ], %g1
     f90:	82 00 40 02 	add  %g1, %g2, %g1
     f94:	c2 27 bf ec 	st  %g1, [ %fp + -20 ]
     f98:	c2 07 bf d0 	ld  [ %fp + -48 ], %g1
     f9c:	85 38 60 02 	sra  %g1, 2, %g2
     fa0:	c2 07 bf e8 	ld  [ %fp + -24 ], %g1
     fa4:	82 00 40 02 	add  %g1, %g2, %g1
     fa8:	c2 27 bf e8 	st  %g1, [ %fp + -24 ]
     fac:	c2 07 bf e4 	ld  [ %fp + -28 ], %g1
     fb0:	c2 27 bf d4 	st  %g1, [ %fp + -44 ]
     fb4:	c2 07 bf e0 	ld  [ %fp + -32 ], %g1
     fb8:	c2 27 bf d0 	st  %g1, [ %fp + -48 ]
     fbc:	c4 07 bf d4 	ld  [ %fp + -44 ], %g2
     fc0:	c2 07 bf dc 	ld  [ %fp + -36 ], %g1
     fc4:	82 00 80 01 	add  %g2, %g1, %g1
     fc8:	c2 27 bf e4 	st  %g1, [ %fp + -28 ]
     fcc:	c4 07 bf d8 	ld  [ %fp + -40 ], %g2
     fd0:	c2 07 bf d0 	ld  [ %fp + -48 ], %g1
     fd4:	82 20 80 01 	sub  %g2, %g1, %g1
     fd8:	c2 27 bf e0 	st  %g1, [ %fp + -32 ]
     fdc:	c4 07 bf d4 	ld  [ %fp + -44 ], %g2
     fe0:	c2 07 bf dc 	ld  [ %fp + -36 ], %g1
     fe4:	82 20 80 01 	sub  %g2, %g1, %g1
     fe8:	c2 27 bf dc 	st  %g1, [ %fp + -36 ]
     fec:	c4 07 bf d8 	ld  [ %fp + -40 ], %g2
     ff0:	c2 07 bf d0 	ld  [ %fp + -48 ], %g1
     ff4:	82 00 80 01 	add  %g2, %g1, %g1
     ff8:	c2 27 bf d8 	st  %g1, [ %fp + -40 ]
     ffc:	c6 07 bf b4 	ld  [ %fp + -76 ], %g3
    1000:	c4 07 bf f4 	ld  [ %fp + -12 ], %g2
    1004:	c2 07 bf e0 	ld  [ %fp + -32 ], %g1
    1008:	82 00 80 01 	add  %g2, %g1, %g1
    100c:	c2 20 c0 00 	st  %g1, [ %g3 ]
    1010:	c2 07 bf b4 	ld  [ %fp + -76 ], %g1
    1014:	86 00 60 04 	add  %g1, 4, %g3
    1018:	c4 07 bf f0 	ld  [ %fp + -16 ], %g2
    101c:	c2 07 bf dc 	ld  [ %fp + -36 ], %g1
    1020:	82 00 80 01 	add  %g2, %g1, %g1
    1024:	c2 20 c0 00 	st  %g1, [ %g3 ]
    1028:	c2 07 bf b8 	ld  [ %fp + -72 ], %g1
    102c:	85 28 60 02 	sll  %g1, 2, %g2
    1030:	c2 07 bf b4 	ld  [ %fp + -76 ], %g1
    1034:	82 20 40 02 	sub  %g1, %g2, %g1
    1038:	c2 27 bf b4 	st  %g1, [ %fp + -76 ]
    103c:	c6 07 bf b4 	ld  [ %fp + -76 ], %g3
    1040:	c4 07 bf ec 	ld  [ %fp + -20 ], %g2
    1044:	c2 07 bf e4 	ld  [ %fp + -28 ], %g1
    1048:	82 20 80 01 	sub  %g2, %g1, %g1
    104c:	c2 20 c0 00 	st  %g1, [ %g3 ]
    1050:	c2 07 bf b4 	ld  [ %fp + -76 ], %g1
    1054:	86 00 60 04 	add  %g1, 4, %g3
    1058:	c4 07 bf e8 	ld  [ %fp + -24 ], %g2
    105c:	c2 07 bf d8 	ld  [ %fp + -40 ], %g1
    1060:	82 20 80 01 	sub  %g2, %g1, %g1
    1064:	c2 20 c0 00 	st  %g1, [ %g3 ]
    1068:	c2 07 bf b8 	ld  [ %fp + -72 ], %g1
    106c:	85 28 60 02 	sll  %g1, 2, %g2
    1070:	c2 07 bf b4 	ld  [ %fp + -76 ], %g1
    1074:	82 20 40 02 	sub  %g1, %g2, %g1
    1078:	c2 27 bf b4 	st  %g1, [ %fp + -76 ]
    107c:	c6 07 bf b4 	ld  [ %fp + -76 ], %g3
    1080:	c4 07 bf f4 	ld  [ %fp + -12 ], %g2
    1084:	c2 07 bf e0 	ld  [ %fp + -32 ], %g1
    1088:	82 20 80 01 	sub  %g2, %g1, %g1
    108c:	c2 20 c0 00 	st  %g1, [ %g3 ]
    1090:	c2 07 bf b4 	ld  [ %fp + -76 ], %g1
    1094:	86 00 60 04 	add  %g1, 4, %g3
    1098:	c4 07 bf f0 	ld  [ %fp + -16 ], %g2
    109c:	c2 07 bf dc 	ld  [ %fp + -36 ], %g1
    10a0:	82 20 80 01 	sub  %g2, %g1, %g1
    10a4:	c2 20 c0 00 	st  %g1, [ %g3 ]
    10a8:	c2 07 bf b8 	ld  [ %fp + -72 ], %g1
    10ac:	85 28 60 02 	sll  %g1, 2, %g2
    10b0:	c2 07 bf b4 	ld  [ %fp + -76 ], %g1
    10b4:	82 20 40 02 	sub  %g1, %g2, %g1
    10b8:	c2 27 bf b4 	st  %g1, [ %fp + -76 ]
    10bc:	c6 07 bf b4 	ld  [ %fp + -76 ], %g3
    10c0:	c4 07 bf ec 	ld  [ %fp + -20 ], %g2
    10c4:	c2 07 bf e4 	ld  [ %fp + -28 ], %g1
    10c8:	82 00 80 01 	add  %g2, %g1, %g1
    10cc:	c2 20 c0 00 	st  %g1, [ %g3 ]
    10d0:	c2 07 bf b4 	ld  [ %fp + -76 ], %g1
    10d4:	86 00 60 04 	add  %g1, 4, %g3
    10d8:	c4 07 bf e8 	ld  [ %fp + -24 ], %g2
    10dc:	c2 07 bf d8 	ld  [ %fp + -40 ], %g1
    10e0:	82 00 80 01 	add  %g2, %g1, %g1
    10e4:	c2 20 c0 00 	st  %g1, [ %g3 ]
    10e8:	c2 07 bf b4 	ld  [ %fp + -76 ], %g1
    10ec:	82 00 60 08 	add  %g1, 8, %g1
    10f0:	c2 27 bf b4 	st  %g1, [ %fp + -76 ]
    10f4:	c2 07 bf bc 	ld  [ %fp + -68 ], %g1
    10f8:	82 00 7f ff 	add  %g1, -1, %g1
    10fc:	c2 27 bf bc 	st  %g1, [ %fp + -68 ]
    1100:	10 bf fe ee 	b  cb8 <R4Core+0x70>
    1104:	01 00 00 00 	nop 
    1108:	c4 07 bf b8 	ld  [ %fp + -72 ], %g2
    110c:	82 10 00 02 	mov  %g2, %g1
    1110:	82 00 40 01 	add  %g1, %g1, %g1
    1114:	82 00 40 02 	add  %g1, %g2, %g1
    1118:	85 28 60 02 	sll  %g1, 2, %g2
    111c:	c2 07 bf b4 	ld  [ %fp + -76 ], %g1
    1120:	82 00 40 02 	add  %g1, %g2, %g1
    1124:	c2 27 bf b4 	st  %g1, [ %fp + -76 ]
    1128:	c2 07 bf c0 	ld  [ %fp + -64 ], %g1
    112c:	82 00 7f ff 	add  %g1, -1, %g1
    1130:	c2 27 bf c0 	st  %g1, [ %fp + -64 ]
    1134:	10 bf fe d7 	b  c90 <R4Core+0x48>
    1138:	01 00 00 00 	nop 
    113c:	c4 07 bf b8 	ld  [ %fp + -72 ], %g2
    1140:	82 10 00 02 	mov  %g2, %g1
    1144:	82 00 40 01 	add  %g1, %g1, %g1
    1148:	82 00 40 02 	add  %g1, %g2, %g1
    114c:	85 28 60 02 	sll  %g1, 2, %g2
    1150:	c2 07 a0 50 	ld  [ %fp + 0x50 ], %g1
    1154:	82 00 40 02 	add  %g1, %g2, %g1
    1158:	c2 27 a0 50 	st  %g1, [ %fp + 0x50 ]
    115c:	c2 07 a0 4c 	ld  [ %fp + 0x4c ], %g1
    1160:	83 28 60 02 	sll  %g1, 2, %g1
    1164:	c2 27 a0 4c 	st  %g1, [ %fp + 0x4c ]
    1168:	c2 07 a0 48 	ld  [ %fp + 0x48 ], %g1
    116c:	83 38 60 02 	sra  %g1, 2, %g1
    1170:	c2 27 a0 48 	st  %g1, [ %fp + 0x48 ]
    1174:	10 bf fe ba 	b  c5c <R4Core+0x14>
    1178:	01 00 00 00 	nop 
    117c:	81 c7 e0 08 	ret 
    1180:	81 e8 00 00 	restore 

00001184 <raac_R4FFT>:
    1184:	9d e3 bf 90 	save  %sp, -112, %sp
    1188:	2f 00 00 00 	sethi  %hi(0), %l7
    118c:	7f ff fb 9d 	call  0 <BitReverse-0x8>
    1190:	ae 05 e0 00 	add  %l7, 0, %l7	! 0 <BitReverse-0x8>
    1194:	f0 27 a0 44 	st  %i0, [ %fp + 0x44 ]
    1198:	f2 27 a0 48 	st  %i1, [ %fp + 0x48 ]
    119c:	03 00 00 00 	sethi  %hi(0), %g1
    11a0:	82 10 60 00 	mov  %g1, %g1	! 0 <BitReverse-0x8>
    11a4:	c4 05 c0 01 	ld  [ %l7 + %g1 ], %g2
    11a8:	c2 07 a0 44 	ld  [ %fp + 0x44 ], %g1
    11ac:	83 28 60 02 	sll  %g1, 2, %g1
    11b0:	c2 00 80 01 	ld  [ %g2 + %g1 ], %g1
    11b4:	c2 27 bf f4 	st  %g1, [ %fp + -12 ]
    11b8:	03 00 00 00 	sethi  %hi(0), %g1
    11bc:	82 10 60 00 	mov  %g1, %g1	! 0 <BitReverse-0x8>
    11c0:	c4 05 c0 01 	ld  [ %l7 + %g1 ], %g2
    11c4:	c2 07 a0 44 	ld  [ %fp + 0x44 ], %g1
    11c8:	83 28 60 02 	sll  %g1, 2, %g1
    11cc:	c2 00 80 01 	ld  [ %g2 + %g1 ], %g1
    11d0:	c2 27 bf f0 	st  %g1, [ %fp + -16 ]
    11d4:	d0 07 a0 48 	ld  [ %fp + 0x48 ], %o0
    11d8:	d2 07 a0 44 	ld  [ %fp + 0x44 ], %o1
    11dc:	7f ff fb 8b 	call  8 <BitReverse>
    11e0:	01 00 00 00 	nop 
    11e4:	c2 07 bf f4 	ld  [ %fp + -12 ], %g1
    11e8:	82 08 60 01 	and  %g1, 1, %g1
    11ec:	80 a0 60 00 	cmp  %g1, 0
    11f0:	02 80 00 15 	be  1244 <raac_R4FFT+0xc0>
    11f4:	01 00 00 00 	nop 
    11f8:	c2 07 bf f0 	ld  [ %fp + -16 ], %g1
    11fc:	83 38 60 03 	sra  %g1, 3, %g1
    1200:	d0 07 a0 48 	ld  [ %fp + 0x48 ], %o0
    1204:	92 10 00 01 	mov  %g1, %o1
    1208:	7f ff fd 24 	call  698 <R8FirstPass>
    120c:	01 00 00 00 	nop 
    1210:	c2 07 bf f0 	ld  [ %fp + -16 ], %g1
    1214:	83 38 60 05 	sra  %g1, 5, %g1
    1218:	d0 07 a0 48 	ld  [ %fp + 0x48 ], %o0
    121c:	92 10 00 01 	mov  %g1, %o1
    1220:	94 10 20 08 	mov  8, %o2
    1224:	03 00 00 00 	sethi  %hi(0), %g1
    1228:	82 10 60 00 	mov  %g1, %g1	! 0 <BitReverse-0x8>
    122c:	c2 05 c0 01 	ld  [ %l7 + %g1 ], %g1
    1230:	96 10 00 01 	mov  %g1, %o3
    1234:	7f ff fe 85 	call  c48 <R4Core>
    1238:	01 00 00 00 	nop 
    123c:	10 80 00 13 	b  1288 <raac_R4FFT+0x104>
    1240:	01 00 00 00 	nop 
    1244:	c2 07 bf f0 	ld  [ %fp + -16 ], %g1
    1248:	83 38 60 02 	sra  %g1, 2, %g1
    124c:	d0 07 a0 48 	ld  [ %fp + 0x48 ], %o0
    1250:	92 10 00 01 	mov  %g1, %o1
    1254:	7f ff fc 91 	call  498 <R4FirstPass>
    1258:	01 00 00 00 	nop 
    125c:	c2 07 bf f0 	ld  [ %fp + -16 ], %g1
    1260:	83 38 60 04 	sra  %g1, 4, %g1
    1264:	d0 07 a0 48 	ld  [ %fp + 0x48 ], %o0
    1268:	92 10 00 01 	mov  %g1, %o1
    126c:	94 10 20 04 	mov  4, %o2
    1270:	03 00 00 00 	sethi  %hi(0), %g1
    1274:	82 10 60 00 	mov  %g1, %g1	! 0 <BitReverse-0x8>
    1278:	c2 05 c0 01 	ld  [ %l7 + %g1 ], %g1
    127c:	96 10 00 01 	mov  %g1, %o3
    1280:	7f ff fe 72 	call  c48 <R4Core>
    1284:	01 00 00 00 	nop 
    1288:	01 00 00 00 	nop 
    128c:	81 c7 e0 08 	ret 
    1290:	81 e8 00 00 	restore 

00001294 <MULSHIFT32>:
    1294:	9d e3 bf 90 	save  %sp, -112, %sp
    1298:	f0 27 a0 44 	st  %i0, [ %fp + 0x44 ]
    129c:	f2 27 a0 48 	st  %i1, [ %fp + 0x48 ]
    12a0:	c2 07 a0 44 	ld  [ %fp + 0x44 ], %g1
    12a4:	83 38 60 1f 	sra  %g1, 0x1f, %g1
    12a8:	da 07 a0 44 	ld  [ %fp + 0x44 ], %o5
    12ac:	98 10 00 01 	mov  %g1, %o4
    12b0:	c2 07 a0 48 	ld  [ %fp + 0x48 ], %g1
    12b4:	83 38 60 1f 	sra  %g1, 0x1f, %g1
    12b8:	c6 07 a0 48 	ld  [ %fp + 0x48 ], %g3
    12bc:	84 10 00 01 	mov  %g1, %g2
    12c0:	90 10 00 0c 	mov  %o4, %o0
    12c4:	92 10 00 0d 	mov  %o5, %o1
    12c8:	94 10 00 02 	mov  %g2, %o2
    12cc:	96 10 00 03 	mov  %g3, %o3
    12d0:	40 00 00 00 	call  12d0 <MULSHIFT32+0x3c>
    12d4:	01 00 00 00 	nop 
    12d8:	98 10 00 08 	mov  %o0, %o4
    12dc:	9a 10 00 09 	mov  %o1, %o5
    12e0:	87 3b 20 00 	sra  %o4, 0, %g3
    12e4:	85 3b 20 1f 	sra  %o4, 0x1f, %g2
    12e8:	c6 27 bf f4 	st  %g3, [ %fp + -12 ]
    12ec:	c2 07 bf f4 	ld  [ %fp + -12 ], %g1
    12f0:	b0 10 00 01 	mov  %g1, %i0
    12f4:	81 c7 e0 08 	ret 
    12f8:	81 e8 00 00 	restore 
