
filefmt.o:     file format elf32-sparc
filefmt.o

Disassembly of section .text:

00000000 <raac_UnpackADTSHeader-0x8>:
       0:	81 c3 e0 08 	retl 
       4:	ae 03 c0 17 	add  %o7, %l7, %l7

00000008 <raac_UnpackADTSHeader>:
       8:	9d e3 bf 78 	save  %sp, -136, %sp
       c:	2f 00 00 00 	sethi  %hi(0), %l7
      10:	7f ff ff fc 	call  0 <raac_UnpackADTSHeader-0x8>
      14:	ae 05 e0 00 	add  %l7, 0, %l7	! 0 <raac_UnpackADTSHeader-0x8>
      18:	f0 27 a0 44 	st  %i0, [ %fp + 0x44 ]
      1c:	f2 27 a0 48 	st  %i1, [ %fp + 0x48 ]
      20:	f4 27 a0 4c 	st  %i2, [ %fp + 0x4c ]
      24:	f6 27 a0 50 	st  %i3, [ %fp + 0x50 ]
      28:	c2 07 a0 44 	ld  [ %fp + 0x44 ], %g1
      2c:	80 a0 60 00 	cmp  %g1, 0
      30:	02 80 00 07 	be  4c <raac_UnpackADTSHeader+0x44>
      34:	01 00 00 00 	nop 
      38:	c2 07 a0 44 	ld  [ %fp + 0x44 ], %g1
      3c:	c2 00 40 00 	ld  [ %g1 ], %g1
      40:	80 a0 60 00 	cmp  %g1, 0
      44:	12 80 00 06 	bne  5c <raac_UnpackADTSHeader+0x54>
      48:	01 00 00 00 	nop 
      4c:	82 10 3f fe 	mov  -2, %g1	! fffffffe <raac_FlushCodec+0xffffecea>
      50:	c2 27 bf d8 	st  %g1, [ %fp + -40 ]
      54:	10 80 01 26 	b  4ec <raac_UnpackADTSHeader+0x4e4>
      58:	01 00 00 00 	nop 
      5c:	c2 07 a0 44 	ld  [ %fp + 0x44 ], %g1
      60:	c2 00 40 00 	ld  [ %g1 ], %g1
      64:	c2 27 bf f0 	st  %g1, [ %fp + -16 ]
      68:	c2 07 bf f0 	ld  [ %fp + -16 ], %g1
      6c:	c2 27 bf dc 	st  %g1, [ %fp + -36 ]
      70:	86 07 bf e0 	add  %fp, -32, %g3
      74:	c2 07 a0 50 	ld  [ %fp + 0x50 ], %g1
      78:	c2 00 40 00 	ld  [ %g1 ], %g1
      7c:	82 00 60 07 	add  %g1, 7, %g1
      80:	83 38 60 03 	sra  %g1, 3, %g1
      84:	c4 07 a0 48 	ld  [ %fp + 0x48 ], %g2
      88:	90 10 00 03 	mov  %g3, %o0
      8c:	92 10 00 01 	mov  %g1, %o1
      90:	d4 00 80 00 	ld  [ %g2 ], %o2
      94:	40 00 00 00 	call  94 <raac_UnpackADTSHeader+0x8c>
      98:	01 00 00 00 	nop 
      9c:	82 07 bf e0 	add  %fp, -32, %g1
      a0:	c4 07 a0 4c 	ld  [ %fp + 0x4c ], %g2
      a4:	90 10 00 01 	mov  %g1, %o0
      a8:	d2 00 80 00 	ld  [ %g2 ], %o1
      ac:	40 00 00 00 	call  ac <raac_UnpackADTSHeader+0xa4>
      b0:	01 00 00 00 	nop 
      b4:	82 07 bf e0 	add  %fp, -32, %g1
      b8:	90 10 00 01 	mov  %g1, %o0
      bc:	92 10 20 0c 	mov  0xc, %o1
      c0:	40 00 00 00 	call  c0 <raac_UnpackADTSHeader+0xb8>
      c4:	01 00 00 00 	nop 
      c8:	82 10 00 08 	mov  %o0, %g1
      cc:	80 a0 6f ff 	cmp  %g1, 0xfff
      d0:	02 80 00 06 	be  e8 <raac_UnpackADTSHeader+0xe0>
      d4:	01 00 00 00 	nop 
      d8:	82 10 3f fd 	mov  -3, %g1	! fffffffd <raac_FlushCodec+0xffffece9>
      dc:	c2 27 bf d8 	st  %g1, [ %fp + -40 ]
      e0:	10 80 01 03 	b  4ec <raac_UnpackADTSHeader+0x4e4>
      e4:	01 00 00 00 	nop 
      e8:	e0 07 bf dc 	ld  [ %fp + -36 ], %l0
      ec:	82 07 bf e0 	add  %fp, -32, %g1
      f0:	90 10 00 01 	mov  %g1, %o0
      f4:	92 10 20 01 	mov  1, %o1
      f8:	40 00 00 00 	call  f8 <raac_UnpackADTSHeader+0xf0>
      fc:	01 00 00 00 	nop 
     100:	82 10 00 08 	mov  %o0, %g1
     104:	c2 2c 00 00 	stb  %g1, [ %l0 ]
     108:	e0 07 bf dc 	ld  [ %fp + -36 ], %l0
     10c:	82 07 bf e0 	add  %fp, -32, %g1
     110:	90 10 00 01 	mov  %g1, %o0
     114:	92 10 20 02 	mov  2, %o1
     118:	40 00 00 00 	call  118 <raac_UnpackADTSHeader+0x110>
     11c:	01 00 00 00 	nop 
     120:	82 10 00 08 	mov  %o0, %g1
     124:	c2 2c 20 01 	stb  %g1, [ %l0 + 1 ]
     128:	e0 07 bf dc 	ld  [ %fp + -36 ], %l0
     12c:	82 07 bf e0 	add  %fp, -32, %g1
     130:	90 10 00 01 	mov  %g1, %o0
     134:	92 10 20 01 	mov  1, %o1
     138:	40 00 00 00 	call  138 <raac_UnpackADTSHeader+0x130>
     13c:	01 00 00 00 	nop 
     140:	82 10 00 08 	mov  %o0, %g1
     144:	c2 2c 20 02 	stb  %g1, [ %l0 + 2 ]
     148:	e0 07 bf dc 	ld  [ %fp + -36 ], %l0
     14c:	82 07 bf e0 	add  %fp, -32, %g1
     150:	90 10 00 01 	mov  %g1, %o0
     154:	92 10 20 02 	mov  2, %o1
     158:	40 00 00 00 	call  158 <raac_UnpackADTSHeader+0x150>
     15c:	01 00 00 00 	nop 
     160:	82 10 00 08 	mov  %o0, %g1
     164:	c2 2c 20 03 	stb  %g1, [ %l0 + 3 ]
     168:	e0 07 bf dc 	ld  [ %fp + -36 ], %l0
     16c:	82 07 bf e0 	add  %fp, -32, %g1
     170:	90 10 00 01 	mov  %g1, %o0
     174:	92 10 20 04 	mov  4, %o1
     178:	40 00 00 00 	call  178 <raac_UnpackADTSHeader+0x170>
     17c:	01 00 00 00 	nop 
     180:	82 10 00 08 	mov  %o0, %g1
     184:	c2 2c 20 04 	stb  %g1, [ %l0 + 4 ]
     188:	e0 07 bf dc 	ld  [ %fp + -36 ], %l0
     18c:	82 07 bf e0 	add  %fp, -32, %g1
     190:	90 10 00 01 	mov  %g1, %o0
     194:	92 10 20 01 	mov  1, %o1
     198:	40 00 00 00 	call  198 <raac_UnpackADTSHeader+0x190>
     19c:	01 00 00 00 	nop 
     1a0:	82 10 00 08 	mov  %o0, %g1
     1a4:	c2 2c 20 05 	stb  %g1, [ %l0 + 5 ]
     1a8:	e0 07 bf dc 	ld  [ %fp + -36 ], %l0
     1ac:	82 07 bf e0 	add  %fp, -32, %g1
     1b0:	90 10 00 01 	mov  %g1, %o0
     1b4:	92 10 20 03 	mov  3, %o1
     1b8:	40 00 00 00 	call  1b8 <raac_UnpackADTSHeader+0x1b0>
     1bc:	01 00 00 00 	nop 
     1c0:	82 10 00 08 	mov  %o0, %g1
     1c4:	c2 2c 20 06 	stb  %g1, [ %l0 + 6 ]
     1c8:	e0 07 bf dc 	ld  [ %fp + -36 ], %l0
     1cc:	82 07 bf e0 	add  %fp, -32, %g1
     1d0:	90 10 00 01 	mov  %g1, %o0
     1d4:	92 10 20 01 	mov  1, %o1
     1d8:	40 00 00 00 	call  1d8 <raac_UnpackADTSHeader+0x1d0>
     1dc:	01 00 00 00 	nop 
     1e0:	82 10 00 08 	mov  %o0, %g1
     1e4:	c2 2c 20 07 	stb  %g1, [ %l0 + 7 ]
     1e8:	e0 07 bf dc 	ld  [ %fp + -36 ], %l0
     1ec:	82 07 bf e0 	add  %fp, -32, %g1
     1f0:	90 10 00 01 	mov  %g1, %o0
     1f4:	92 10 20 01 	mov  1, %o1
     1f8:	40 00 00 00 	call  1f8 <raac_UnpackADTSHeader+0x1f0>
     1fc:	01 00 00 00 	nop 
     200:	82 10 00 08 	mov  %o0, %g1
     204:	c2 2c 20 08 	stb  %g1, [ %l0 + 8 ]
     208:	e0 07 bf dc 	ld  [ %fp + -36 ], %l0
     20c:	82 07 bf e0 	add  %fp, -32, %g1
     210:	90 10 00 01 	mov  %g1, %o0
     214:	92 10 20 01 	mov  1, %o1
     218:	40 00 00 00 	call  218 <raac_UnpackADTSHeader+0x210>
     21c:	01 00 00 00 	nop 
     220:	82 10 00 08 	mov  %o0, %g1
     224:	c2 2c 20 09 	stb  %g1, [ %l0 + 9 ]
     228:	e0 07 bf dc 	ld  [ %fp + -36 ], %l0
     22c:	82 07 bf e0 	add  %fp, -32, %g1
     230:	90 10 00 01 	mov  %g1, %o0
     234:	92 10 20 01 	mov  1, %o1
     238:	40 00 00 00 	call  238 <raac_UnpackADTSHeader+0x230>
     23c:	01 00 00 00 	nop 
     240:	82 10 00 08 	mov  %o0, %g1
     244:	c2 2c 20 0a 	stb  %g1, [ %l0 + 0xa ]
     248:	e0 07 bf dc 	ld  [ %fp + -36 ], %l0
     24c:	82 07 bf e0 	add  %fp, -32, %g1
     250:	90 10 00 01 	mov  %g1, %o0
     254:	92 10 20 0d 	mov  0xd, %o1
     258:	40 00 00 00 	call  258 <raac_UnpackADTSHeader+0x250>
     25c:	01 00 00 00 	nop 
     260:	d0 24 20 0c 	st  %o0, [ %l0 + 0xc ]
     264:	e0 07 bf dc 	ld  [ %fp + -36 ], %l0
     268:	82 07 bf e0 	add  %fp, -32, %g1
     26c:	90 10 00 01 	mov  %g1, %o0
     270:	92 10 20 0b 	mov  0xb, %o1
     274:	40 00 00 00 	call  274 <raac_UnpackADTSHeader+0x26c>
     278:	01 00 00 00 	nop 
     27c:	d0 24 20 10 	st  %o0, [ %l0 + 0x10 ]
     280:	e0 07 bf dc 	ld  [ %fp + -36 ], %l0
     284:	82 07 bf e0 	add  %fp, -32, %g1
     288:	90 10 00 01 	mov  %g1, %o0
     28c:	92 10 20 02 	mov  2, %o1
     290:	40 00 00 00 	call  290 <raac_UnpackADTSHeader+0x288>
     294:	01 00 00 00 	nop 
     298:	82 10 00 08 	mov  %o0, %g1
     29c:	82 00 60 01 	inc  %g1
     2a0:	c2 2c 20 14 	stb  %g1, [ %l0 + 0x14 ]
     2a4:	c2 07 bf dc 	ld  [ %fp + -36 ], %g1
     2a8:	c2 08 60 02 	ldub  [ %g1 + 2 ], %g1
     2ac:	82 08 60 ff 	and  %g1, 0xff, %g1
     2b0:	80 a0 60 00 	cmp  %g1, 0
     2b4:	12 80 00 09 	bne  2d8 <raac_UnpackADTSHeader+0x2d0>
     2b8:	01 00 00 00 	nop 
     2bc:	e0 07 bf dc 	ld  [ %fp + -36 ], %l0
     2c0:	82 07 bf e0 	add  %fp, -32, %g1
     2c4:	90 10 00 01 	mov  %g1, %o0
     2c8:	92 10 20 10 	mov  0x10, %o1
     2cc:	40 00 00 00 	call  2cc <raac_UnpackADTSHeader+0x2c4>
     2d0:	01 00 00 00 	nop 
     2d4:	d0 24 20 18 	st  %o0, [ %l0 + 0x18 ]
     2d8:	82 07 bf e0 	add  %fp, -32, %g1
     2dc:	90 10 00 01 	mov  %g1, %o0
     2e0:	40 00 00 00 	call  2e0 <raac_UnpackADTSHeader+0x2d8>
     2e4:	01 00 00 00 	nop 
     2e8:	c2 07 bf dc 	ld  [ %fp + -36 ], %g1
     2ec:	c2 08 60 01 	ldub  [ %g1 + 1 ], %g1
     2f0:	82 08 60 ff 	and  %g1, 0xff, %g1
     2f4:	80 a0 60 00 	cmp  %g1, 0
     2f8:	12 80 00 16 	bne  350 <raac_UnpackADTSHeader+0x348>
     2fc:	01 00 00 00 	nop 
     300:	c2 07 bf dc 	ld  [ %fp + -36 ], %g1
     304:	c2 08 60 03 	ldub  [ %g1 + 3 ], %g1
     308:	82 08 60 ff 	and  %g1, 0xff, %g1
     30c:	80 a0 60 01 	cmp  %g1, 1
     310:	12 80 00 10 	bne  350 <raac_UnpackADTSHeader+0x348>
     314:	01 00 00 00 	nop 
     318:	c2 07 bf dc 	ld  [ %fp + -36 ], %g1
     31c:	c2 08 60 04 	ldub  [ %g1 + 4 ], %g1
     320:	82 08 60 ff 	and  %g1, 0xff, %g1
     324:	80 a0 60 0b 	cmp  %g1, 0xb
     328:	18 80 00 0a 	bgu  350 <raac_UnpackADTSHeader+0x348>
     32c:	01 00 00 00 	nop 
     330:	c2 07 bf dc 	ld  [ %fp + -36 ], %g1
     334:	c2 08 60 06 	ldub  [ %g1 + 6 ], %g1
     338:	82 08 60 ff 	and  %g1, 0xff, %g1
     33c:	80 a0 60 07 	cmp  %g1, 7
     340:	18 80 00 04 	bgu  350 <raac_UnpackADTSHeader+0x348>
     344:	01 00 00 00 	nop 
     348:	10 80 00 06 	b  360 <raac_UnpackADTSHeader+0x358>
     34c:	01 00 00 00 	nop 
     350:	82 10 3f fd 	mov  -3, %g1	! fffffffd <raac_FlushCodec+0xffffece9>
     354:	c2 27 bf d8 	st  %g1, [ %fp + -40 ]
     358:	10 80 00 65 	b  4ec <raac_UnpackADTSHeader+0x4e4>
     35c:	01 00 00 00 	nop 
     360:	c4 07 bf f0 	ld  [ %fp + -16 ], %g2
     364:	c2 07 bf dc 	ld  [ %fp + -36 ], %g1
     368:	c2 08 60 04 	ldub  [ %g1 + 4 ], %g1
     36c:	82 08 60 ff 	and  %g1, 0xff, %g1
     370:	c2 20 a8 78 	st  %g1, [ %g2 + 0x878 ]
     374:	c2 07 bf f0 	ld  [ %fp + -16 ], %g1
     378:	c2 00 68 74 	ld  [ %g1 + 0x874 ], %g1
     37c:	80 a0 60 00 	cmp  %g1, 0
     380:	12 80 00 0c 	bne  3b0 <raac_UnpackADTSHeader+0x3a8>
     384:	01 00 00 00 	nop 
     388:	c6 07 bf f0 	ld  [ %fp + -16 ], %g3
     38c:	03 00 00 00 	sethi  %hi(0), %g1
     390:	82 10 60 00 	mov  %g1, %g1	! 0 <raac_UnpackADTSHeader-0x8>
     394:	c4 05 c0 01 	ld  [ %l7 + %g1 ], %g2
     398:	c2 07 bf dc 	ld  [ %fp + -36 ], %g1
     39c:	c2 08 60 06 	ldub  [ %g1 + 6 ], %g1
     3a0:	82 08 60 ff 	and  %g1, 0xff, %g1
     3a4:	83 28 60 02 	sll  %g1, 2, %g1
     3a8:	c2 00 80 01 	ld  [ %g2 + %g1 ], %g1
     3ac:	c2 20 e8 70 	st  %g1, [ %g3 + 0x870 ]
     3b0:	c4 07 a0 44 	ld  [ %fp + 0x44 ], %g2
     3b4:	82 10 3f ff 	mov  -1, %g1
     3b8:	c2 20 a0 24 	st  %g1, [ %g2 + 0x24 ]
     3bc:	c4 07 a0 44 	ld  [ %fp + 0x44 ], %g2
     3c0:	82 10 3f ff 	mov  -1, %g1
     3c4:	c2 20 a0 28 	st  %g1, [ %g2 + 0x28 ]
     3c8:	c4 07 a0 44 	ld  [ %fp + 0x44 ], %g2
     3cc:	82 10 3f ff 	mov  -1, %g1
     3d0:	c2 20 a0 2c 	st  %g1, [ %g2 + 0x2c ]
     3d4:	c2 07 a0 44 	ld  [ %fp + 0x44 ], %g1
     3d8:	c0 20 60 3c 	clr  [ %g1 + 0x3c ]
     3dc:	c4 07 a0 44 	ld  [ %fp + 0x44 ], %g2
     3e0:	c2 07 bf f0 	ld  [ %fp + -16 ], %g1
     3e4:	c2 00 68 70 	ld  [ %g1 + 0x870 ], %g1
     3e8:	c2 20 a0 40 	st  %g1, [ %g2 + 0x40 ]
     3ec:	c6 07 a0 44 	ld  [ %fp + 0x44 ], %g3
     3f0:	03 00 00 00 	sethi  %hi(0), %g1
     3f4:	82 10 60 00 	mov  %g1, %g1	! 0 <raac_UnpackADTSHeader-0x8>
     3f8:	c4 05 c0 01 	ld  [ %l7 + %g1 ], %g2
     3fc:	c2 07 bf f0 	ld  [ %fp + -16 ], %g1
     400:	c2 00 68 78 	ld  [ %g1 + 0x878 ], %g1
     404:	83 28 60 02 	sll  %g1, 2, %g1
     408:	c2 00 80 01 	ld  [ %g2 + %g1 ], %g1
     40c:	c2 20 e0 44 	st  %g1, [ %g3 + 0x44 ]
     410:	c4 07 a0 44 	ld  [ %fp + 0x44 ], %g2
     414:	c2 07 bf dc 	ld  [ %fp + -36 ], %g1
     418:	c2 08 60 03 	ldub  [ %g1 + 3 ], %g1
     41c:	82 08 60 ff 	and  %g1, 0xff, %g1
     420:	c2 20 a0 48 	st  %g1, [ %g2 + 0x48 ]
     424:	c2 07 a0 44 	ld  [ %fp + 0x44 ], %g1
     428:	c0 20 60 50 	clr  [ %g1 + 0x50 ]
     42c:	c4 07 a0 44 	ld  [ %fp + 0x44 ], %g2
     430:	c2 07 bf dc 	ld  [ %fp + -36 ], %g1
     434:	c2 08 60 14 	ldub  [ %g1 + 0x14 ], %g1
     438:	82 08 60 ff 	and  %g1, 0xff, %g1
     43c:	c2 20 a0 38 	st  %g1, [ %g2 + 0x38 ]
     440:	82 07 bf e0 	add  %fp, -32, %g1
     444:	c4 07 a0 48 	ld  [ %fp + 0x48 ], %g2
     448:	c6 07 a0 4c 	ld  [ %fp + 0x4c ], %g3
     44c:	90 10 00 01 	mov  %g1, %o0
     450:	d2 00 80 00 	ld  [ %g2 ], %o1
     454:	d4 00 c0 00 	ld  [ %g3 ], %o2
     458:	40 00 00 00 	call  458 <raac_UnpackADTSHeader+0x450>
     45c:	01 00 00 00 	nop 
     460:	82 10 00 08 	mov  %o0, %g1
     464:	c2 27 bf f4 	st  %g1, [ %fp + -12 ]
     468:	c8 07 a0 48 	ld  [ %fp + 0x48 ], %g4
     46c:	c6 07 a0 48 	ld  [ %fp + 0x48 ], %g3
     470:	c2 07 a0 4c 	ld  [ %fp + 0x4c ], %g1
     474:	c4 07 bf f4 	ld  [ %fp + -12 ], %g2
     478:	c2 00 40 00 	ld  [ %g1 ], %g1
     47c:	82 00 80 01 	add  %g2, %g1, %g1
     480:	85 38 60 03 	sra  %g1, 3, %g2
     484:	c2 00 c0 00 	ld  [ %g3 ], %g1
     488:	82 00 40 02 	add  %g1, %g2, %g1
     48c:	c2 21 00 00 	st  %g1, [ %g4 ]
     490:	c6 07 a0 4c 	ld  [ %fp + 0x4c ], %g3
     494:	c2 07 a0 4c 	ld  [ %fp + 0x4c ], %g1
     498:	c4 07 bf f4 	ld  [ %fp + -12 ], %g2
     49c:	c2 00 40 00 	ld  [ %g1 ], %g1
     4a0:	82 00 80 01 	add  %g2, %g1, %g1
     4a4:	82 08 60 07 	and  %g1, 7, %g1
     4a8:	c2 20 c0 00 	st  %g1, [ %g3 ]
     4ac:	c6 07 a0 50 	ld  [ %fp + 0x50 ], %g3
     4b0:	c2 07 a0 50 	ld  [ %fp + 0x50 ], %g1
     4b4:	c4 00 40 00 	ld  [ %g1 ], %g2
     4b8:	c2 07 bf f4 	ld  [ %fp + -12 ], %g1
     4bc:	82 20 80 01 	sub  %g2, %g1, %g1
     4c0:	c2 20 c0 00 	st  %g1, [ %g3 ]
     4c4:	c2 07 a0 50 	ld  [ %fp + 0x50 ], %g1
     4c8:	c2 00 40 00 	ld  [ %g1 ], %g1
     4cc:	80 a0 60 00 	cmp  %g1, 0
     4d0:	16 80 00 06 	bge  4e8 <raac_UnpackADTSHeader+0x4e0>
     4d4:	01 00 00 00 	nop 
     4d8:	82 10 3f ff 	mov  -1, %g1	! ffffffff <raac_FlushCodec+0xffffeceb>
     4dc:	c2 27 bf d8 	st  %g1, [ %fp + -40 ]
     4e0:	10 80 00 03 	b  4ec <raac_UnpackADTSHeader+0x4e4>
     4e4:	01 00 00 00 	nop 
     4e8:	c0 27 bf d8 	clr  [ %fp + -40 ]
     4ec:	f0 07 bf d8 	ld  [ %fp + -40 ], %i0
     4f0:	81 c7 e0 08 	ret 
     4f4:	81 e8 00 00 	restore 

000004f8 <raac_GetADTSChannelMapping>:
     4f8:	9d e3 bf 80 	save  %sp, -128, %sp
     4fc:	2f 00 00 00 	sethi  %hi(0), %l7
     500:	7f ff fe c0 	call  0 <raac_UnpackADTSHeader-0x8>
     504:	ae 05 e0 00 	add  %l7, 0, %l7	! 0 <raac_UnpackADTSHeader-0x8>
     508:	f0 27 a0 44 	st  %i0, [ %fp + 0x44 ]
     50c:	f2 27 a0 48 	st  %i1, [ %fp + 0x48 ]
     510:	f4 27 a0 4c 	st  %i2, [ %fp + 0x4c ]
     514:	f6 27 a0 50 	st  %i3, [ %fp + 0x50 ]
     518:	c2 07 a0 44 	ld  [ %fp + 0x44 ], %g1
     51c:	80 a0 60 00 	cmp  %g1, 0
     520:	02 80 00 07 	be  53c <raac_GetADTSChannelMapping+0x44>
     524:	01 00 00 00 	nop 
     528:	c2 07 a0 44 	ld  [ %fp + 0x44 ], %g1
     52c:	c2 00 40 00 	ld  [ %g1 ], %g1
     530:	80 a0 60 00 	cmp  %g1, 0
     534:	12 80 00 06 	bne  54c <raac_GetADTSChannelMapping+0x54>
     538:	01 00 00 00 	nop 
     53c:	82 10 3f fe 	mov  -2, %g1	! fffffffe <raac_FlushCodec+0xffffecea>
     540:	c2 27 bf e0 	st  %g1, [ %fp + -32 ]
     544:	10 80 00 5e 	b  6bc <raac_GetADTSChannelMapping+0x1c4>
     548:	01 00 00 00 	nop 
     54c:	c2 07 a0 44 	ld  [ %fp + 0x44 ], %g1
     550:	c2 00 40 00 	ld  [ %g1 ], %g1
     554:	c2 27 bf e4 	st  %g1, [ %fp + -28 ]
     558:	c0 27 bf f0 	clr  [ %fp + -16 ]
     55c:	82 07 a0 48 	add  %fp, 0x48, %g1
     560:	84 07 a0 4c 	add  %fp, 0x4c, %g2
     564:	86 07 a0 50 	add  %fp, 0x50, %g3
     568:	d0 07 a0 44 	ld  [ %fp + 0x44 ], %o0
     56c:	92 10 00 01 	mov  %g1, %o1
     570:	94 10 00 02 	mov  %g2, %o2
     574:	96 10 00 03 	mov  %g3, %o3
     578:	40 00 00 00 	call  578 <raac_GetADTSChannelMapping+0x80>
     57c:	01 00 00 00 	nop 
     580:	82 10 00 08 	mov  %o0, %g1
     584:	c2 27 bf e8 	st  %g1, [ %fp + -24 ]
     588:	c2 07 bf e8 	ld  [ %fp + -24 ], %g1
     58c:	80 a0 60 00 	cmp  %g1, 0
     590:	02 80 00 06 	be  5a8 <raac_GetADTSChannelMapping+0xb0>
     594:	01 00 00 00 	nop 
     598:	c2 07 bf e8 	ld  [ %fp + -24 ], %g1
     59c:	c2 27 bf e0 	st  %g1, [ %fp + -32 ]
     5a0:	10 80 00 47 	b  6bc <raac_GetADTSChannelMapping+0x1c4>
     5a4:	01 00 00 00 	nop 
     5a8:	03 00 00 00 	sethi  %hi(0), %g1
     5ac:	82 10 60 00 	mov  %g1, %g1	! 0 <raac_UnpackADTSHeader-0x8>
     5b0:	c4 05 c0 01 	ld  [ %l7 + %g1 ], %g2
     5b4:	c2 07 a0 44 	ld  [ %fp + 0x44 ], %g1
     5b8:	c2 00 60 28 	ld  [ %g1 + 0x28 ], %g1
     5bc:	83 28 60 02 	sll  %g1, 2, %g1
     5c0:	c2 00 80 01 	ld  [ %g2 + %g1 ], %g1
     5c4:	c2 27 bf ec 	st  %g1, [ %fp + -20 ]
     5c8:	c4 07 bf f0 	ld  [ %fp + -16 ], %g2
     5cc:	c2 07 bf ec 	ld  [ %fp + -20 ], %g1
     5d0:	82 00 80 01 	add  %g2, %g1, %g1
     5d4:	c2 27 bf f0 	st  %g1, [ %fp + -16 ]
     5d8:	c0 27 bf f4 	clr  [ %fp + -12 ]
     5dc:	c4 07 bf f4 	ld  [ %fp + -12 ], %g2
     5e0:	c2 07 bf ec 	ld  [ %fp + -20 ], %g1
     5e4:	80 a0 80 01 	cmp  %g2, %g1
     5e8:	06 80 00 04 	bl  5f8 <raac_GetADTSChannelMapping+0x100>
     5ec:	01 00 00 00 	nop 
     5f0:	10 80 00 1b 	b  65c <raac_GetADTSChannelMapping+0x164>
     5f4:	01 00 00 00 	nop 
     5f8:	82 07 a0 48 	add  %fp, 0x48, %g1
     5fc:	84 07 a0 4c 	add  %fp, 0x4c, %g2
     600:	86 07 a0 50 	add  %fp, 0x50, %g3
     604:	d0 07 a0 44 	ld  [ %fp + 0x44 ], %o0
     608:	92 10 00 01 	mov  %g1, %o1
     60c:	94 10 00 02 	mov  %g2, %o2
     610:	96 10 00 03 	mov  %g3, %o3
     614:	d8 07 bf f4 	ld  [ %fp + -12 ], %o4
     618:	40 00 00 00 	call  618 <raac_GetADTSChannelMapping+0x120>
     61c:	01 00 00 00 	nop 
     620:	82 10 00 08 	mov  %o0, %g1
     624:	c2 27 bf e8 	st  %g1, [ %fp + -24 ]
     628:	c2 07 bf e8 	ld  [ %fp + -24 ], %g1
     62c:	80 a0 60 00 	cmp  %g1, 0
     630:	02 80 00 06 	be  648 <raac_GetADTSChannelMapping+0x150>
     634:	01 00 00 00 	nop 
     638:	c2 07 bf e8 	ld  [ %fp + -24 ], %g1
     63c:	c2 27 bf e0 	st  %g1, [ %fp + -32 ]
     640:	10 80 00 1f 	b  6bc <raac_GetADTSChannelMapping+0x1c4>
     644:	01 00 00 00 	nop 
     648:	c2 07 bf f4 	ld  [ %fp + -12 ], %g1
     64c:	82 00 60 01 	inc  %g1
     650:	c2 27 bf f4 	st  %g1, [ %fp + -12 ]
     654:	10 bf ff e2 	b  5dc <raac_GetADTSChannelMapping+0xe4>
     658:	01 00 00 00 	nop 
     65c:	c2 07 a0 44 	ld  [ %fp + 0x44 ], %g1
     660:	c2 00 60 28 	ld  [ %g1 + 0x28 ], %g1
     664:	80 a0 60 07 	cmp  %g1, 7
     668:	12 bf ff bd 	bne  55c <raac_GetADTSChannelMapping+0x64>
     66c:	01 00 00 00 	nop 
     670:	c2 07 bf f0 	ld  [ %fp + -16 ], %g1
     674:	80 a0 60 00 	cmp  %g1, 0
     678:	14 80 00 06 	bg  690 <raac_GetADTSChannelMapping+0x198>
     67c:	01 00 00 00 	nop 
     680:	82 10 3f f9 	mov  -7, %g1	! fffffff9 <raac_FlushCodec+0xffffece5>
     684:	c2 27 bf e0 	st  %g1, [ %fp + -32 ]
     688:	10 80 00 0d 	b  6bc <raac_GetADTSChannelMapping+0x1c4>
     68c:	01 00 00 00 	nop 
     690:	c4 07 bf e4 	ld  [ %fp + -28 ], %g2
     694:	c2 07 bf f0 	ld  [ %fp + -16 ], %g1
     698:	c2 20 a8 70 	st  %g1, [ %g2 + 0x870 ]
     69c:	c4 07 a0 44 	ld  [ %fp + 0x44 ], %g2
     6a0:	c2 07 bf e4 	ld  [ %fp + -28 ], %g1
     6a4:	c2 00 68 70 	ld  [ %g1 + 0x870 ], %g1
     6a8:	c2 20 a0 40 	st  %g1, [ %g2 + 0x40 ]
     6ac:	c4 07 bf e4 	ld  [ %fp + -28 ], %g2
     6b0:	82 10 20 01 	mov  1, %g1
     6b4:	c2 20 a8 74 	st  %g1, [ %g2 + 0x874 ]
     6b8:	c0 27 bf e0 	clr  [ %fp + -32 ]
     6bc:	f0 07 bf e0 	ld  [ %fp + -32 ], %i0
     6c0:	81 c7 e0 08 	ret 
     6c4:	81 e8 00 00 	restore 

000006c8 <GetNumChannelsADIF>:
     6c8:	9d e3 bf 88 	save  %sp, -120, %sp
     6cc:	f0 27 a0 44 	st  %i0, [ %fp + 0x44 ]
     6d0:	f2 27 a0 48 	st  %i1, [ %fp + 0x48 ]
     6d4:	c2 07 a0 48 	ld  [ %fp + 0x48 ], %g1
     6d8:	80 a0 60 00 	cmp  %g1, 0
     6dc:	04 80 00 08 	ble  6fc <GetNumChannelsADIF+0x34>
     6e0:	01 00 00 00 	nop 
     6e4:	c2 07 a0 48 	ld  [ %fp + 0x48 ], %g1
     6e8:	80 a0 60 10 	cmp  %g1, 0x10
     6ec:	14 80 00 04 	bg  6fc <GetNumChannelsADIF+0x34>
     6f0:	01 00 00 00 	nop 
     6f4:	10 80 00 06 	b  70c <GetNumChannelsADIF+0x44>
     6f8:	01 00 00 00 	nop 
     6fc:	82 10 3f ff 	mov  -1, %g1	! ffffffff <raac_FlushCodec+0xffffeceb>
     700:	c2 27 bf e8 	st  %g1, [ %fp + -24 ]
     704:	10 80 00 f0 	b  ac4 <GetNumChannelsADIF+0x3fc>
     708:	01 00 00 00 	nop 
     70c:	c0 27 bf ec 	clr  [ %fp + -20 ]
     710:	c0 27 bf f4 	clr  [ %fp + -12 ]
     714:	c4 07 bf f4 	ld  [ %fp + -12 ], %g2
     718:	c2 07 a0 48 	ld  [ %fp + 0x48 ], %g1
     71c:	80 a0 80 01 	cmp  %g2, %g1
     720:	06 80 00 04 	bl  730 <GetNumChannelsADIF+0x68>
     724:	01 00 00 00 	nop 
     728:	10 80 00 e5 	b  abc <GetNumChannelsADIF+0x3f4>
     72c:	01 00 00 00 	nop 
     730:	c4 07 bf f4 	ld  [ %fp + -12 ], %g2
     734:	82 10 00 02 	mov  %g2, %g1
     738:	83 28 60 02 	sll  %g1, 2, %g1
     73c:	82 00 40 02 	add  %g1, %g2, %g1
     740:	83 28 60 03 	sll  %g1, 3, %g1
     744:	82 00 40 02 	add  %g1, %g2, %g1
     748:	84 00 40 01 	add  %g1, %g1, %g2
     74c:	c2 07 a0 44 	ld  [ %fp + 0x44 ], %g1
     750:	82 00 80 01 	add  %g2, %g1, %g1
     754:	c2 08 60 01 	ldub  [ %g1 + 1 ], %g1
     758:	82 08 60 ff 	and  %g1, 0xff, %g1
     75c:	80 a0 60 01 	cmp  %g1, 1
     760:	12 80 00 12 	bne  7a8 <GetNumChannelsADIF+0xe0>
     764:	01 00 00 00 	nop 
     768:	c4 07 bf f4 	ld  [ %fp + -12 ], %g2
     76c:	82 10 00 02 	mov  %g2, %g1
     770:	83 28 60 02 	sll  %g1, 2, %g1
     774:	82 00 40 02 	add  %g1, %g2, %g1
     778:	83 28 60 03 	sll  %g1, 3, %g1
     77c:	82 00 40 02 	add  %g1, %g2, %g1
     780:	84 00 40 01 	add  %g1, %g1, %g2
     784:	c2 07 a0 44 	ld  [ %fp + 0x44 ], %g1
     788:	82 00 80 01 	add  %g2, %g1, %g1
     78c:	c2 08 60 08 	ldub  [ %g1 + 8 ], %g1
     790:	82 08 60 ff 	and  %g1, 0xff, %g1
     794:	80 a0 60 00 	cmp  %g1, 0
     798:	12 80 00 04 	bne  7a8 <GetNumChannelsADIF+0xe0>
     79c:	01 00 00 00 	nop 
     7a0:	10 80 00 06 	b  7b8 <GetNumChannelsADIF+0xf0>
     7a4:	01 00 00 00 	nop 
     7a8:	82 10 3f ff 	mov  -1, %g1	! ffffffff <raac_FlushCodec+0xffffeceb>
     7ac:	c2 27 bf e8 	st  %g1, [ %fp + -24 ]
     7b0:	10 80 00 c5 	b  ac4 <GetNumChannelsADIF+0x3fc>
     7b4:	01 00 00 00 	nop 
     7b8:	c4 07 bf f4 	ld  [ %fp + -12 ], %g2
     7bc:	82 10 00 02 	mov  %g2, %g1
     7c0:	83 28 60 02 	sll  %g1, 2, %g1
     7c4:	82 00 40 02 	add  %g1, %g2, %g1
     7c8:	83 28 60 03 	sll  %g1, 3, %g1
     7cc:	82 00 40 02 	add  %g1, %g2, %g1
     7d0:	84 00 40 01 	add  %g1, %g1, %g2
     7d4:	c2 07 a0 44 	ld  [ %fp + 0x44 ], %g1
     7d8:	82 00 80 01 	add  %g2, %g1, %g1
     7dc:	c2 08 60 03 	ldub  [ %g1 + 3 ], %g1
     7e0:	84 08 60 ff 	and  %g1, 0xff, %g2
     7e4:	c2 07 bf ec 	ld  [ %fp + -20 ], %g1
     7e8:	82 00 40 02 	add  %g1, %g2, %g1
     7ec:	c2 27 bf ec 	st  %g1, [ %fp + -20 ]
     7f0:	c4 07 bf f4 	ld  [ %fp + -12 ], %g2
     7f4:	82 10 00 02 	mov  %g2, %g1
     7f8:	83 28 60 02 	sll  %g1, 2, %g1
     7fc:	82 00 40 02 	add  %g1, %g2, %g1
     800:	83 28 60 03 	sll  %g1, 3, %g1
     804:	82 00 40 02 	add  %g1, %g2, %g1
     808:	84 00 40 01 	add  %g1, %g1, %g2
     80c:	c2 07 a0 44 	ld  [ %fp + 0x44 ], %g1
     810:	82 00 80 01 	add  %g2, %g1, %g1
     814:	c2 08 60 04 	ldub  [ %g1 + 4 ], %g1
     818:	84 08 60 ff 	and  %g1, 0xff, %g2
     81c:	c2 07 bf ec 	ld  [ %fp + -20 ], %g1
     820:	82 00 40 02 	add  %g1, %g2, %g1
     824:	c2 27 bf ec 	st  %g1, [ %fp + -20 ]
     828:	c4 07 bf f4 	ld  [ %fp + -12 ], %g2
     82c:	82 10 00 02 	mov  %g2, %g1
     830:	83 28 60 02 	sll  %g1, 2, %g1
     834:	82 00 40 02 	add  %g1, %g2, %g1
     838:	83 28 60 03 	sll  %g1, 3, %g1
     83c:	82 00 40 02 	add  %g1, %g2, %g1
     840:	84 00 40 01 	add  %g1, %g1, %g2
     844:	c2 07 a0 44 	ld  [ %fp + 0x44 ], %g1
     848:	82 00 80 01 	add  %g2, %g1, %g1
     84c:	c2 08 60 05 	ldub  [ %g1 + 5 ], %g1
     850:	84 08 60 ff 	and  %g1, 0xff, %g2
     854:	c2 07 bf ec 	ld  [ %fp + -20 ], %g1
     858:	82 00 40 02 	add  %g1, %g2, %g1
     85c:	c2 27 bf ec 	st  %g1, [ %fp + -20 ]
     860:	c4 07 bf f4 	ld  [ %fp + -12 ], %g2
     864:	82 10 00 02 	mov  %g2, %g1
     868:	83 28 60 02 	sll  %g1, 2, %g1
     86c:	82 00 40 02 	add  %g1, %g2, %g1
     870:	83 28 60 03 	sll  %g1, 3, %g1
     874:	82 00 40 02 	add  %g1, %g2, %g1
     878:	84 00 40 01 	add  %g1, %g1, %g2
     87c:	c2 07 a0 44 	ld  [ %fp + 0x44 ], %g1
     880:	82 00 80 01 	add  %g2, %g1, %g1
     884:	c2 08 60 06 	ldub  [ %g1 + 6 ], %g1
     888:	84 08 60 ff 	and  %g1, 0xff, %g2
     88c:	c2 07 bf ec 	ld  [ %fp + -20 ], %g1
     890:	82 00 40 02 	add  %g1, %g2, %g1
     894:	c2 27 bf ec 	st  %g1, [ %fp + -20 ]
     898:	c0 27 bf f0 	clr  [ %fp + -16 ]
     89c:	c4 07 bf f4 	ld  [ %fp + -12 ], %g2
     8a0:	82 10 00 02 	mov  %g2, %g1
     8a4:	83 28 60 02 	sll  %g1, 2, %g1
     8a8:	82 00 40 02 	add  %g1, %g2, %g1
     8ac:	83 28 60 03 	sll  %g1, 3, %g1
     8b0:	82 00 40 02 	add  %g1, %g2, %g1
     8b4:	84 00 40 01 	add  %g1, %g1, %g2
     8b8:	c2 07 a0 44 	ld  [ %fp + 0x44 ], %g1
     8bc:	82 00 80 01 	add  %g2, %g1, %g1
     8c0:	c2 08 60 03 	ldub  [ %g1 + 3 ], %g1
     8c4:	84 08 60 ff 	and  %g1, 0xff, %g2
     8c8:	c2 07 bf f0 	ld  [ %fp + -16 ], %g1
     8cc:	80 a0 40 02 	cmp  %g1, %g2
     8d0:	06 80 00 04 	bl  8e0 <GetNumChannelsADIF+0x218>
     8d4:	01 00 00 00 	nop 
     8d8:	10 80 00 1c 	b  948 <GetNumChannelsADIF+0x280>
     8dc:	01 00 00 00 	nop 
     8e0:	c4 07 bf f4 	ld  [ %fp + -12 ], %g2
     8e4:	82 10 00 02 	mov  %g2, %g1
     8e8:	83 28 60 02 	sll  %g1, 2, %g1
     8ec:	82 00 40 02 	add  %g1, %g2, %g1
     8f0:	83 28 60 03 	sll  %g1, 3, %g1
     8f4:	82 00 40 02 	add  %g1, %g2, %g1
     8f8:	84 00 40 01 	add  %g1, %g1, %g2
     8fc:	c2 07 a0 44 	ld  [ %fp + 0x44 ], %g1
     900:	84 00 80 01 	add  %g2, %g1, %g2
     904:	c2 07 bf f0 	ld  [ %fp + -16 ], %g1
     908:	82 00 80 01 	add  %g2, %g1, %g1
     90c:	c2 08 60 0c 	ldub  [ %g1 + 0xc ], %g1
     910:	82 08 60 ff 	and  %g1, 0xff, %g1
     914:	82 08 60 10 	and  %g1, 0x10, %g1
     918:	83 38 60 04 	sra  %g1, 4, %g1
     91c:	80 a0 60 00 	cmp  %g1, 0
     920:	02 80 00 05 	be  934 <GetNumChannelsADIF+0x26c>
     924:	01 00 00 00 	nop 
     928:	c2 07 bf ec 	ld  [ %fp + -20 ], %g1
     92c:	82 00 60 01 	inc  %g1
     930:	c2 27 bf ec 	st  %g1, [ %fp + -20 ]
     934:	c2 07 bf f0 	ld  [ %fp + -16 ], %g1
     938:	82 00 60 01 	inc  %g1
     93c:	c2 27 bf f0 	st  %g1, [ %fp + -16 ]
     940:	10 bf ff d7 	b  89c <GetNumChannelsADIF+0x1d4>
     944:	01 00 00 00 	nop 
     948:	c0 27 bf f0 	clr  [ %fp + -16 ]
     94c:	c4 07 bf f4 	ld  [ %fp + -12 ], %g2
     950:	82 10 00 02 	mov  %g2, %g1
     954:	83 28 60 02 	sll  %g1, 2, %g1
     958:	82 00 40 02 	add  %g1, %g2, %g1
     95c:	83 28 60 03 	sll  %g1, 3, %g1
     960:	82 00 40 02 	add  %g1, %g2, %g1
     964:	84 00 40 01 	add  %g1, %g1, %g2
     968:	c2 07 a0 44 	ld  [ %fp + 0x44 ], %g1
     96c:	82 00 80 01 	add  %g2, %g1, %g1
     970:	c2 08 60 04 	ldub  [ %g1 + 4 ], %g1
     974:	84 08 60 ff 	and  %g1, 0xff, %g2
     978:	c2 07 bf f0 	ld  [ %fp + -16 ], %g1
     97c:	80 a0 40 02 	cmp  %g1, %g2
     980:	06 80 00 04 	bl  990 <GetNumChannelsADIF+0x2c8>
     984:	01 00 00 00 	nop 
     988:	10 80 00 1c 	b  9f8 <GetNumChannelsADIF+0x330>
     98c:	01 00 00 00 	nop 
     990:	c4 07 bf f4 	ld  [ %fp + -12 ], %g2
     994:	82 10 00 02 	mov  %g2, %g1
     998:	83 28 60 02 	sll  %g1, 2, %g1
     99c:	82 00 40 02 	add  %g1, %g2, %g1
     9a0:	83 28 60 03 	sll  %g1, 3, %g1
     9a4:	82 00 40 02 	add  %g1, %g2, %g1
     9a8:	84 00 40 01 	add  %g1, %g1, %g2
     9ac:	c2 07 a0 44 	ld  [ %fp + 0x44 ], %g1
     9b0:	84 00 80 01 	add  %g2, %g1, %g2
     9b4:	c2 07 bf f0 	ld  [ %fp + -16 ], %g1
     9b8:	82 00 80 01 	add  %g2, %g1, %g1
     9bc:	c2 08 60 1b 	ldub  [ %g1 + 0x1b ], %g1
     9c0:	82 08 60 ff 	and  %g1, 0xff, %g1
     9c4:	82 08 60 10 	and  %g1, 0x10, %g1
     9c8:	83 38 60 04 	sra  %g1, 4, %g1
     9cc:	80 a0 60 00 	cmp  %g1, 0
     9d0:	02 80 00 05 	be  9e4 <GetNumChannelsADIF+0x31c>
     9d4:	01 00 00 00 	nop 
     9d8:	c2 07 bf ec 	ld  [ %fp + -20 ], %g1
     9dc:	82 00 60 01 	inc  %g1
     9e0:	c2 27 bf ec 	st  %g1, [ %fp + -20 ]
     9e4:	c2 07 bf f0 	ld  [ %fp + -16 ], %g1
     9e8:	82 00 60 01 	inc  %g1
     9ec:	c2 27 bf f0 	st  %g1, [ %fp + -16 ]
     9f0:	10 bf ff d7 	b  94c <GetNumChannelsADIF+0x284>
     9f4:	01 00 00 00 	nop 
     9f8:	c0 27 bf f0 	clr  [ %fp + -16 ]
     9fc:	c4 07 bf f4 	ld  [ %fp + -12 ], %g2
     a00:	82 10 00 02 	mov  %g2, %g1
     a04:	83 28 60 02 	sll  %g1, 2, %g1
     a08:	82 00 40 02 	add  %g1, %g2, %g1
     a0c:	83 28 60 03 	sll  %g1, 3, %g1
     a10:	82 00 40 02 	add  %g1, %g2, %g1
     a14:	84 00 40 01 	add  %g1, %g1, %g2
     a18:	c2 07 a0 44 	ld  [ %fp + 0x44 ], %g1
     a1c:	82 00 80 01 	add  %g2, %g1, %g1
     a20:	c2 08 60 05 	ldub  [ %g1 + 5 ], %g1
     a24:	84 08 60 ff 	and  %g1, 0xff, %g2
     a28:	c2 07 bf f0 	ld  [ %fp + -16 ], %g1
     a2c:	80 a0 40 02 	cmp  %g1, %g2
     a30:	06 80 00 04 	bl  a40 <GetNumChannelsADIF+0x378>
     a34:	01 00 00 00 	nop 
     a38:	10 80 00 1c 	b  aa8 <GetNumChannelsADIF+0x3e0>
     a3c:	01 00 00 00 	nop 
     a40:	c4 07 bf f4 	ld  [ %fp + -12 ], %g2
     a44:	82 10 00 02 	mov  %g2, %g1
     a48:	83 28 60 02 	sll  %g1, 2, %g1
     a4c:	82 00 40 02 	add  %g1, %g2, %g1
     a50:	83 28 60 03 	sll  %g1, 3, %g1
     a54:	82 00 40 02 	add  %g1, %g2, %g1
     a58:	84 00 40 01 	add  %g1, %g1, %g2
     a5c:	c2 07 a0 44 	ld  [ %fp + 0x44 ], %g1
     a60:	84 00 80 01 	add  %g2, %g1, %g2
     a64:	c2 07 bf f0 	ld  [ %fp + -16 ], %g1
     a68:	82 00 80 01 	add  %g2, %g1, %g1
     a6c:	c2 08 60 2a 	ldub  [ %g1 + 0x2a ], %g1
     a70:	82 08 60 ff 	and  %g1, 0xff, %g1
     a74:	82 08 60 10 	and  %g1, 0x10, %g1
     a78:	83 38 60 04 	sra  %g1, 4, %g1
     a7c:	80 a0 60 00 	cmp  %g1, 0
     a80:	02 80 00 05 	be  a94 <GetNumChannelsADIF+0x3cc>
     a84:	01 00 00 00 	nop 
     a88:	c2 07 bf ec 	ld  [ %fp + -20 ], %g1
     a8c:	82 00 60 01 	inc  %g1
     a90:	c2 27 bf ec 	st  %g1, [ %fp + -20 ]
     a94:	c2 07 bf f0 	ld  [ %fp + -16 ], %g1
     a98:	82 00 60 01 	inc  %g1
     a9c:	c2 27 bf f0 	st  %g1, [ %fp + -16 ]
     aa0:	10 bf ff d7 	b  9fc <GetNumChannelsADIF+0x334>
     aa4:	01 00 00 00 	nop 
     aa8:	c2 07 bf f4 	ld  [ %fp + -12 ], %g1
     aac:	82 00 60 01 	inc  %g1
     ab0:	c2 27 bf f4 	st  %g1, [ %fp + -12 ]
     ab4:	10 bf ff 18 	b  714 <GetNumChannelsADIF+0x4c>
     ab8:	01 00 00 00 	nop 
     abc:	c2 07 bf ec 	ld  [ %fp + -20 ], %g1
     ac0:	c2 27 bf e8 	st  %g1, [ %fp + -24 ]
     ac4:	f0 07 bf e8 	ld  [ %fp + -24 ], %i0
     ac8:	81 c7 e0 08 	ret 
     acc:	81 e8 00 00 	restore 

00000ad0 <GetSampleRateIdxADIF>:
     ad0:	9d e3 bf 88 	save  %sp, -120, %sp
     ad4:	f0 27 a0 44 	st  %i0, [ %fp + 0x44 ]
     ad8:	f2 27 a0 48 	st  %i1, [ %fp + 0x48 ]
     adc:	c2 07 a0 48 	ld  [ %fp + 0x48 ], %g1
     ae0:	80 a0 60 00 	cmp  %g1, 0
     ae4:	04 80 00 08 	ble  b04 <GetSampleRateIdxADIF+0x34>
     ae8:	01 00 00 00 	nop 
     aec:	c2 07 a0 48 	ld  [ %fp + 0x48 ], %g1
     af0:	80 a0 60 10 	cmp  %g1, 0x10
     af4:	14 80 00 04 	bg  b04 <GetSampleRateIdxADIF+0x34>
     af8:	01 00 00 00 	nop 
     afc:	10 80 00 06 	b  b14 <GetSampleRateIdxADIF+0x44>
     b00:	01 00 00 00 	nop 
     b04:	82 10 3f ff 	mov  -1, %g1	! ffffffff <raac_FlushCodec+0xffffeceb>
     b08:	c2 27 bf ec 	st  %g1, [ %fp + -20 ]
     b0c:	10 80 00 29 	b  bb0 <GetSampleRateIdxADIF+0xe0>
     b10:	01 00 00 00 	nop 
     b14:	c2 07 a0 44 	ld  [ %fp + 0x44 ], %g1
     b18:	c2 08 60 02 	ldub  [ %g1 + 2 ], %g1
     b1c:	82 08 60 ff 	and  %g1, 0xff, %g1
     b20:	c2 27 bf f0 	st  %g1, [ %fp + -16 ]
     b24:	82 10 20 01 	mov  1, %g1
     b28:	c2 27 bf f4 	st  %g1, [ %fp + -12 ]
     b2c:	c4 07 bf f4 	ld  [ %fp + -12 ], %g2
     b30:	c2 07 a0 48 	ld  [ %fp + 0x48 ], %g1
     b34:	80 a0 80 01 	cmp  %g2, %g1
     b38:	06 80 00 04 	bl  b48 <GetSampleRateIdxADIF+0x78>
     b3c:	01 00 00 00 	nop 
     b40:	10 80 00 1a 	b  ba8 <GetSampleRateIdxADIF+0xd8>
     b44:	01 00 00 00 	nop 
     b48:	c4 07 bf f4 	ld  [ %fp + -12 ], %g2
     b4c:	82 10 00 02 	mov  %g2, %g1
     b50:	83 28 60 02 	sll  %g1, 2, %g1
     b54:	82 00 40 02 	add  %g1, %g2, %g1
     b58:	83 28 60 03 	sll  %g1, 3, %g1
     b5c:	82 00 40 02 	add  %g1, %g2, %g1
     b60:	84 00 40 01 	add  %g1, %g1, %g2
     b64:	c2 07 a0 44 	ld  [ %fp + 0x44 ], %g1
     b68:	82 00 80 01 	add  %g2, %g1, %g1
     b6c:	c2 08 60 02 	ldub  [ %g1 + 2 ], %g1
     b70:	84 08 60 ff 	and  %g1, 0xff, %g2
     b74:	c2 07 bf f0 	ld  [ %fp + -16 ], %g1
     b78:	80 a0 80 01 	cmp  %g2, %g1
     b7c:	02 80 00 06 	be  b94 <GetSampleRateIdxADIF+0xc4>
     b80:	01 00 00 00 	nop 
     b84:	82 10 3f ff 	mov  -1, %g1	! ffffffff <raac_FlushCodec+0xffffeceb>
     b88:	c2 27 bf ec 	st  %g1, [ %fp + -20 ]
     b8c:	10 80 00 09 	b  bb0 <GetSampleRateIdxADIF+0xe0>
     b90:	01 00 00 00 	nop 
     b94:	c2 07 bf f4 	ld  [ %fp + -12 ], %g1
     b98:	82 00 60 01 	inc  %g1
     b9c:	c2 27 bf f4 	st  %g1, [ %fp + -12 ]
     ba0:	10 bf ff e3 	b  b2c <GetSampleRateIdxADIF+0x5c>
     ba4:	01 00 00 00 	nop 
     ba8:	c2 07 bf f0 	ld  [ %fp + -16 ], %g1
     bac:	c2 27 bf ec 	st  %g1, [ %fp + -20 ]
     bb0:	f0 07 bf ec 	ld  [ %fp + -20 ], %i0
     bb4:	81 c7 e0 08 	ret 
     bb8:	81 e8 00 00 	restore 

00000bbc <raac_UnpackADIFHeader>:
     bbc:	9d e3 bf 68 	save  %sp, -152, %sp
     bc0:	2f 00 00 00 	sethi  %hi(0), %l7
     bc4:	7f ff fd 0f 	call  0 <raac_UnpackADTSHeader-0x8>
     bc8:	ae 05 e0 00 	add  %l7, 0, %l7	! 0 <raac_UnpackADTSHeader-0x8>
     bcc:	f0 27 a0 44 	st  %i0, [ %fp + 0x44 ]
     bd0:	f2 27 a0 48 	st  %i1, [ %fp + 0x48 ]
     bd4:	f4 27 a0 4c 	st  %i2, [ %fp + 0x4c ]
     bd8:	f6 27 a0 50 	st  %i3, [ %fp + 0x50 ]
     bdc:	c2 07 a0 44 	ld  [ %fp + 0x44 ], %g1
     be0:	80 a0 60 00 	cmp  %g1, 0
     be4:	02 80 00 07 	be  c00 <raac_UnpackADIFHeader+0x44>
     be8:	01 00 00 00 	nop 
     bec:	c2 07 a0 44 	ld  [ %fp + 0x44 ], %g1
     bf0:	c2 00 40 00 	ld  [ %g1 ], %g1
     bf4:	80 a0 60 00 	cmp  %g1, 0
     bf8:	12 80 00 06 	bne  c10 <raac_UnpackADIFHeader+0x54>
     bfc:	01 00 00 00 	nop 
     c00:	82 10 3f fe 	mov  -2, %g1	! fffffffe <raac_FlushCodec+0xffffecea>
     c04:	c2 27 bf cc 	st  %g1, [ %fp + -52 ]
     c08:	10 80 01 31 	b  10cc <raac_UnpackADIFHeader+0x510>
     c0c:	01 00 00 00 	nop 
     c10:	c2 07 a0 44 	ld  [ %fp + 0x44 ], %g1
     c14:	c2 00 40 00 	ld  [ %g1 ], %g1
     c18:	c2 27 bf ec 	st  %g1, [ %fp + -20 ]
     c1c:	86 07 bf d8 	add  %fp, -40, %g3
     c20:	c2 07 a0 50 	ld  [ %fp + 0x50 ], %g1
     c24:	c2 00 40 00 	ld  [ %g1 ], %g1
     c28:	82 00 60 07 	add  %g1, 7, %g1
     c2c:	83 38 60 03 	sra  %g1, 3, %g1
     c30:	c4 07 a0 48 	ld  [ %fp + 0x48 ], %g2
     c34:	90 10 00 03 	mov  %g3, %o0
     c38:	92 10 00 01 	mov  %g1, %o1
     c3c:	d4 00 80 00 	ld  [ %g2 ], %o2
     c40:	40 00 00 00 	call  c40 <raac_UnpackADIFHeader+0x84>
     c44:	01 00 00 00 	nop 
     c48:	82 07 bf d8 	add  %fp, -40, %g1
     c4c:	c4 07 a0 4c 	ld  [ %fp + 0x4c ], %g2
     c50:	90 10 00 01 	mov  %g1, %o0
     c54:	d2 00 80 00 	ld  [ %g2 ], %o1
     c58:	40 00 00 00 	call  c58 <raac_UnpackADIFHeader+0x9c>
     c5c:	01 00 00 00 	nop 
     c60:	c2 07 bf ec 	ld  [ %fp + -20 ], %g1
     c64:	82 00 60 1c 	add  %g1, 0x1c, %g1
     c68:	c2 27 bf d4 	st  %g1, [ %fp + -44 ]
     c6c:	c2 07 bf ec 	ld  [ %fp + -20 ], %g1
     c70:	82 00 60 38 	add  %g1, 0x38, %g1
     c74:	c2 27 bf d0 	st  %g1, [ %fp + -48 ]
     c78:	82 07 bf d8 	add  %fp, -40, %g1
     c7c:	90 10 00 01 	mov  %g1, %o0
     c80:	92 10 20 08 	mov  8, %o1
     c84:	40 00 00 00 	call  c84 <raac_UnpackADIFHeader+0xc8>
     c88:	01 00 00 00 	nop 
     c8c:	82 10 00 08 	mov  %o0, %g1
     c90:	80 a0 60 41 	cmp  %g1, 0x41
     c94:	12 80 00 1f 	bne  d10 <raac_UnpackADIFHeader+0x154>
     c98:	01 00 00 00 	nop 
     c9c:	82 07 bf d8 	add  %fp, -40, %g1
     ca0:	90 10 00 01 	mov  %g1, %o0
     ca4:	92 10 20 08 	mov  8, %o1
     ca8:	40 00 00 00 	call  ca8 <raac_UnpackADIFHeader+0xec>
     cac:	01 00 00 00 	nop 
     cb0:	82 10 00 08 	mov  %o0, %g1
     cb4:	80 a0 60 44 	cmp  %g1, 0x44
     cb8:	12 80 00 16 	bne  d10 <raac_UnpackADIFHeader+0x154>
     cbc:	01 00 00 00 	nop 
     cc0:	82 07 bf d8 	add  %fp, -40, %g1
     cc4:	90 10 00 01 	mov  %g1, %o0
     cc8:	92 10 20 08 	mov  8, %o1
     ccc:	40 00 00 00 	call  ccc <raac_UnpackADIFHeader+0x110>
     cd0:	01 00 00 00 	nop 
     cd4:	82 10 00 08 	mov  %o0, %g1
     cd8:	80 a0 60 49 	cmp  %g1, 0x49
     cdc:	12 80 00 0d 	bne  d10 <raac_UnpackADIFHeader+0x154>
     ce0:	01 00 00 00 	nop 
     ce4:	82 07 bf d8 	add  %fp, -40, %g1
     ce8:	90 10 00 01 	mov  %g1, %o0
     cec:	92 10 20 08 	mov  8, %o1
     cf0:	40 00 00 00 	call  cf0 <raac_UnpackADIFHeader+0x134>
     cf4:	01 00 00 00 	nop 
     cf8:	82 10 00 08 	mov  %o0, %g1
     cfc:	80 a0 60 46 	cmp  %g1, 0x46
     d00:	12 80 00 04 	bne  d10 <raac_UnpackADIFHeader+0x154>
     d04:	01 00 00 00 	nop 
     d08:	10 80 00 06 	b  d20 <raac_UnpackADIFHeader+0x164>
     d0c:	01 00 00 00 	nop 
     d10:	82 10 3f fc 	mov  -4, %g1	! fffffffc <raac_FlushCodec+0xffffece8>
     d14:	c2 27 bf cc 	st  %g1, [ %fp + -52 ]
     d18:	10 80 00 ed 	b  10cc <raac_UnpackADIFHeader+0x510>
     d1c:	01 00 00 00 	nop 
     d20:	e0 07 bf d4 	ld  [ %fp + -44 ], %l0
     d24:	82 07 bf d8 	add  %fp, -40, %g1
     d28:	90 10 00 01 	mov  %g1, %o0
     d2c:	92 10 20 01 	mov  1, %o1
     d30:	40 00 00 00 	call  d30 <raac_UnpackADIFHeader+0x174>
     d34:	01 00 00 00 	nop 
     d38:	82 10 00 08 	mov  %o0, %g1
     d3c:	c2 2c 00 00 	stb  %g1, [ %l0 ]
     d40:	c2 07 bf d4 	ld  [ %fp + -44 ], %g1
     d44:	c2 08 40 00 	ldub  [ %g1 ], %g1
     d48:	82 08 60 ff 	and  %g1, 0xff, %g1
     d4c:	80 a0 60 00 	cmp  %g1, 0
     d50:	02 80 00 18 	be  db0 <raac_UnpackADIFHeader+0x1f4>
     d54:	01 00 00 00 	nop 
     d58:	c0 27 bf f4 	clr  [ %fp + -12 ]
     d5c:	c2 07 bf f4 	ld  [ %fp + -12 ], %g1
     d60:	80 a0 60 08 	cmp  %g1, 8
     d64:	04 80 00 04 	ble  d74 <raac_UnpackADIFHeader+0x1b8>
     d68:	01 00 00 00 	nop 
     d6c:	10 80 00 11 	b  db0 <raac_UnpackADIFHeader+0x1f4>
     d70:	01 00 00 00 	nop 
     d74:	c4 07 bf d4 	ld  [ %fp + -44 ], %g2
     d78:	c2 07 bf f4 	ld  [ %fp + -12 ], %g1
     d7c:	a0 00 80 01 	add  %g2, %g1, %l0
     d80:	82 07 bf d8 	add  %fp, -40, %g1
     d84:	90 10 00 01 	mov  %g1, %o0
     d88:	92 10 20 08 	mov  8, %o1
     d8c:	40 00 00 00 	call  d8c <raac_UnpackADIFHeader+0x1d0>
     d90:	01 00 00 00 	nop 
     d94:	82 10 00 08 	mov  %o0, %g1
     d98:	c2 2c 20 10 	stb  %g1, [ %l0 + 0x10 ]
     d9c:	c2 07 bf f4 	ld  [ %fp + -12 ], %g1
     da0:	82 00 60 01 	inc  %g1
     da4:	c2 27 bf f4 	st  %g1, [ %fp + -12 ]
     da8:	10 bf ff ed 	b  d5c <raac_UnpackADIFHeader+0x1a0>
     dac:	01 00 00 00 	nop 
     db0:	e0 07 bf d4 	ld  [ %fp + -44 ], %l0
     db4:	82 07 bf d8 	add  %fp, -40, %g1
     db8:	90 10 00 01 	mov  %g1, %o0
     dbc:	92 10 20 01 	mov  1, %o1
     dc0:	40 00 00 00 	call  dc0 <raac_UnpackADIFHeader+0x204>
     dc4:	01 00 00 00 	nop 
     dc8:	82 10 00 08 	mov  %o0, %g1
     dcc:	c2 2c 20 01 	stb  %g1, [ %l0 + 1 ]
     dd0:	e0 07 bf d4 	ld  [ %fp + -44 ], %l0
     dd4:	82 07 bf d8 	add  %fp, -40, %g1
     dd8:	90 10 00 01 	mov  %g1, %o0
     ddc:	92 10 20 01 	mov  1, %o1
     de0:	40 00 00 00 	call  de0 <raac_UnpackADIFHeader+0x224>
     de4:	01 00 00 00 	nop 
     de8:	82 10 00 08 	mov  %o0, %g1
     dec:	c2 2c 20 02 	stb  %g1, [ %l0 + 2 ]
     df0:	e0 07 bf d4 	ld  [ %fp + -44 ], %l0
     df4:	82 07 bf d8 	add  %fp, -40, %g1
     df8:	90 10 00 01 	mov  %g1, %o0
     dfc:	92 10 20 01 	mov  1, %o1
     e00:	40 00 00 00 	call  e00 <raac_UnpackADIFHeader+0x244>
     e04:	01 00 00 00 	nop 
     e08:	82 10 00 08 	mov  %o0, %g1
     e0c:	c2 2c 20 03 	stb  %g1, [ %l0 + 3 ]
     e10:	e0 07 bf d4 	ld  [ %fp + -44 ], %l0
     e14:	82 07 bf d8 	add  %fp, -40, %g1
     e18:	90 10 00 01 	mov  %g1, %o0
     e1c:	92 10 20 17 	mov  0x17, %o1
     e20:	40 00 00 00 	call  e20 <raac_UnpackADIFHeader+0x264>
     e24:	01 00 00 00 	nop 
     e28:	d0 24 20 04 	st  %o0, [ %l0 + 4 ]
     e2c:	e0 07 bf d4 	ld  [ %fp + -44 ], %l0
     e30:	82 07 bf d8 	add  %fp, -40, %g1
     e34:	90 10 00 01 	mov  %g1, %o0
     e38:	92 10 20 04 	mov  4, %o1
     e3c:	40 00 00 00 	call  e3c <raac_UnpackADIFHeader+0x280>
     e40:	01 00 00 00 	nop 
     e44:	82 10 00 08 	mov  %o0, %g1
     e48:	82 00 60 01 	inc  %g1
     e4c:	c2 2c 20 08 	stb  %g1, [ %l0 + 8 ]
     e50:	c2 07 bf d4 	ld  [ %fp + -44 ], %g1
     e54:	c2 08 60 03 	ldub  [ %g1 + 3 ], %g1
     e58:	82 08 60 ff 	and  %g1, 0xff, %g1
     e5c:	80 a0 60 00 	cmp  %g1, 0
     e60:	12 80 00 09 	bne  e84 <raac_UnpackADIFHeader+0x2c8>
     e64:	01 00 00 00 	nop 
     e68:	e0 07 bf d4 	ld  [ %fp + -44 ], %l0
     e6c:	82 07 bf d8 	add  %fp, -40, %g1
     e70:	90 10 00 01 	mov  %g1, %o0
     e74:	92 10 20 14 	mov  0x14, %o1
     e78:	40 00 00 00 	call  e78 <raac_UnpackADIFHeader+0x2bc>
     e7c:	01 00 00 00 	nop 
     e80:	d0 24 20 0c 	st  %o0, [ %l0 + 0xc ]
     e84:	c0 27 bf f4 	clr  [ %fp + -12 ]
     e88:	c2 07 bf d4 	ld  [ %fp + -44 ], %g1
     e8c:	c2 08 60 08 	ldub  [ %g1 + 8 ], %g1
     e90:	84 08 60 ff 	and  %g1, 0xff, %g2
     e94:	c2 07 bf f4 	ld  [ %fp + -12 ], %g1
     e98:	80 a0 40 02 	cmp  %g1, %g2
     e9c:	06 80 00 04 	bl  eac <raac_UnpackADIFHeader+0x2f0>
     ea0:	01 00 00 00 	nop 
     ea4:	10 80 00 15 	b  ef8 <raac_UnpackADIFHeader+0x33c>
     ea8:	01 00 00 00 	nop 
     eac:	c4 07 bf f4 	ld  [ %fp + -12 ], %g2
     eb0:	82 10 00 02 	mov  %g2, %g1
     eb4:	83 28 60 02 	sll  %g1, 2, %g1
     eb8:	82 00 40 02 	add  %g1, %g2, %g1
     ebc:	83 28 60 03 	sll  %g1, 3, %g1
     ec0:	82 00 40 02 	add  %g1, %g2, %g1
     ec4:	84 00 40 01 	add  %g1, %g1, %g2
     ec8:	c2 07 bf d0 	ld  [ %fp + -48 ], %g1
     ecc:	82 00 80 01 	add  %g2, %g1, %g1
     ed0:	84 07 bf d8 	add  %fp, -40, %g2
     ed4:	90 10 00 01 	mov  %g1, %o0
     ed8:	92 10 00 02 	mov  %g2, %o1
     edc:	40 00 00 00 	call  edc <raac_UnpackADIFHeader+0x320>
     ee0:	01 00 00 00 	nop 
     ee4:	c2 07 bf f4 	ld  [ %fp + -12 ], %g1
     ee8:	82 00 60 01 	inc  %g1
     eec:	c2 27 bf f4 	st  %g1, [ %fp + -12 ]
     ef0:	10 bf ff e6 	b  e88 <raac_UnpackADIFHeader+0x2cc>
     ef4:	01 00 00 00 	nop 
     ef8:	82 07 bf d8 	add  %fp, -40, %g1
     efc:	90 10 00 01 	mov  %g1, %o0
     f00:	40 00 00 00 	call  f00 <raac_UnpackADIFHeader+0x344>
     f04:	01 00 00 00 	nop 
     f08:	e0 07 bf ec 	ld  [ %fp + -20 ], %l0
     f0c:	c2 07 bf d4 	ld  [ %fp + -44 ], %g1
     f10:	c2 08 60 08 	ldub  [ %g1 + 8 ], %g1
     f14:	82 08 60 ff 	and  %g1, 0xff, %g1
     f18:	d0 07 bf d0 	ld  [ %fp + -48 ], %o0
     f1c:	92 10 00 01 	mov  %g1, %o1
     f20:	7f ff fd ea 	call  6c8 <GetNumChannelsADIF>
     f24:	01 00 00 00 	nop 
     f28:	d0 24 28 70 	st  %o0, [ %l0 + 0x870 ]
     f2c:	e0 07 bf ec 	ld  [ %fp + -20 ], %l0
     f30:	c2 07 bf d4 	ld  [ %fp + -44 ], %g1
     f34:	c2 08 60 08 	ldub  [ %g1 + 8 ], %g1
     f38:	82 08 60 ff 	and  %g1, 0xff, %g1
     f3c:	d0 07 bf d0 	ld  [ %fp + -48 ], %o0
     f40:	92 10 00 01 	mov  %g1, %o1
     f44:	7f ff fe e3 	call  ad0 <GetSampleRateIdxADIF>
     f48:	01 00 00 00 	nop 
     f4c:	d0 24 28 78 	st  %o0, [ %l0 + 0x878 ]
     f50:	c2 07 bf ec 	ld  [ %fp + -20 ], %g1
     f54:	c2 00 68 70 	ld  [ %g1 + 0x870 ], %g1
     f58:	80 a0 60 00 	cmp  %g1, 0
     f5c:	06 80 00 0e 	bl  f94 <raac_UnpackADIFHeader+0x3d8>
     f60:	01 00 00 00 	nop 
     f64:	c2 07 bf ec 	ld  [ %fp + -20 ], %g1
     f68:	c2 00 68 78 	ld  [ %g1 + 0x878 ], %g1
     f6c:	80 a0 60 00 	cmp  %g1, 0
     f70:	06 80 00 09 	bl  f94 <raac_UnpackADIFHeader+0x3d8>
     f74:	01 00 00 00 	nop 
     f78:	c2 07 bf ec 	ld  [ %fp + -20 ], %g1
     f7c:	c2 00 68 78 	ld  [ %g1 + 0x878 ], %g1
     f80:	80 a0 60 0b 	cmp  %g1, 0xb
     f84:	14 80 00 04 	bg  f94 <raac_UnpackADIFHeader+0x3d8>
     f88:	01 00 00 00 	nop 
     f8c:	10 80 00 06 	b  fa4 <raac_UnpackADIFHeader+0x3e8>
     f90:	01 00 00 00 	nop 
     f94:	82 10 3f fc 	mov  -4, %g1	! fffffffc <raac_FlushCodec+0xffffece8>
     f98:	c2 27 bf cc 	st  %g1, [ %fp + -52 ]
     f9c:	10 80 00 4c 	b  10cc <raac_UnpackADIFHeader+0x510>
     fa0:	01 00 00 00 	nop 
     fa4:	c4 07 a0 44 	ld  [ %fp + 0x44 ], %g2
     fa8:	82 10 3f ff 	mov  -1, %g1
     fac:	c2 20 a0 24 	st  %g1, [ %g2 + 0x24 ]
     fb0:	c4 07 a0 44 	ld  [ %fp + 0x44 ], %g2
     fb4:	82 10 3f ff 	mov  -1, %g1
     fb8:	c2 20 a0 28 	st  %g1, [ %g2 + 0x28 ]
     fbc:	c4 07 a0 44 	ld  [ %fp + 0x44 ], %g2
     fc0:	82 10 3f ff 	mov  -1, %g1
     fc4:	c2 20 a0 2c 	st  %g1, [ %g2 + 0x2c ]
     fc8:	c2 07 a0 44 	ld  [ %fp + 0x44 ], %g1
     fcc:	c0 20 60 3c 	clr  [ %g1 + 0x3c ]
     fd0:	c4 07 a0 44 	ld  [ %fp + 0x44 ], %g2
     fd4:	c2 07 bf ec 	ld  [ %fp + -20 ], %g1
     fd8:	c2 00 68 70 	ld  [ %g1 + 0x870 ], %g1
     fdc:	c2 20 a0 40 	st  %g1, [ %g2 + 0x40 ]
     fe0:	c6 07 a0 44 	ld  [ %fp + 0x44 ], %g3
     fe4:	03 00 00 00 	sethi  %hi(0), %g1
     fe8:	82 10 60 00 	mov  %g1, %g1	! 0 <raac_UnpackADTSHeader-0x8>
     fec:	c4 05 c0 01 	ld  [ %l7 + %g1 ], %g2
     ff0:	c2 07 bf ec 	ld  [ %fp + -20 ], %g1
     ff4:	c2 00 68 78 	ld  [ %g1 + 0x878 ], %g1
     ff8:	83 28 60 02 	sll  %g1, 2, %g1
     ffc:	c2 00 80 01 	ld  [ %g2 + %g1 ], %g1
    1000:	c2 20 e0 44 	st  %g1, [ %g3 + 0x44 ]
    1004:	c4 07 a0 44 	ld  [ %fp + 0x44 ], %g2
    1008:	c2 07 bf d0 	ld  [ %fp + -48 ], %g1
    100c:	c2 08 60 01 	ldub  [ %g1 + 1 ], %g1
    1010:	82 08 60 ff 	and  %g1, 0xff, %g1
    1014:	c2 20 a0 48 	st  %g1, [ %g2 + 0x48 ]
    1018:	c2 07 a0 44 	ld  [ %fp + 0x44 ], %g1
    101c:	c0 20 60 50 	clr  [ %g1 + 0x50 ]
    1020:	82 07 bf d8 	add  %fp, -40, %g1
    1024:	c4 07 a0 48 	ld  [ %fp + 0x48 ], %g2
    1028:	c6 07 a0 4c 	ld  [ %fp + 0x4c ], %g3
    102c:	90 10 00 01 	mov  %g1, %o0
    1030:	d2 00 80 00 	ld  [ %g2 ], %o1
    1034:	d4 00 c0 00 	ld  [ %g3 ], %o2
    1038:	40 00 00 00 	call  1038 <raac_UnpackADIFHeader+0x47c>
    103c:	01 00 00 00 	nop 
    1040:	82 10 00 08 	mov  %o0, %g1
    1044:	c2 27 bf f0 	st  %g1, [ %fp + -16 ]
    1048:	c8 07 a0 48 	ld  [ %fp + 0x48 ], %g4
    104c:	c6 07 a0 48 	ld  [ %fp + 0x48 ], %g3
    1050:	c2 07 a0 4c 	ld  [ %fp + 0x4c ], %g1
    1054:	c4 07 bf f0 	ld  [ %fp + -16 ], %g2
    1058:	c2 00 40 00 	ld  [ %g1 ], %g1
    105c:	82 00 80 01 	add  %g2, %g1, %g1
    1060:	85 38 60 03 	sra  %g1, 3, %g2
    1064:	c2 00 c0 00 	ld  [ %g3 ], %g1
    1068:	82 00 40 02 	add  %g1, %g2, %g1
    106c:	c2 21 00 00 	st  %g1, [ %g4 ]
    1070:	c6 07 a0 4c 	ld  [ %fp + 0x4c ], %g3
    1074:	c2 07 a0 4c 	ld  [ %fp + 0x4c ], %g1
    1078:	c4 07 bf f0 	ld  [ %fp + -16 ], %g2
    107c:	c2 00 40 00 	ld  [ %g1 ], %g1
    1080:	82 00 80 01 	add  %g2, %g1, %g1
    1084:	82 08 60 07 	and  %g1, 7, %g1
    1088:	c2 20 c0 00 	st  %g1, [ %g3 ]
    108c:	c6 07 a0 50 	ld  [ %fp + 0x50 ], %g3
    1090:	c2 07 a0 50 	ld  [ %fp + 0x50 ], %g1
    1094:	c4 00 40 00 	ld  [ %g1 ], %g2
    1098:	c2 07 bf f0 	ld  [ %fp + -16 ], %g1
    109c:	82 20 80 01 	sub  %g2, %g1, %g1
    10a0:	c2 20 c0 00 	st  %g1, [ %g3 ]
    10a4:	c2 07 a0 50 	ld  [ %fp + 0x50 ], %g1
    10a8:	c2 00 40 00 	ld  [ %g1 ], %g1
    10ac:	80 a0 60 00 	cmp  %g1, 0
    10b0:	16 80 00 06 	bge  10c8 <raac_UnpackADIFHeader+0x50c>
    10b4:	01 00 00 00 	nop 
    10b8:	82 10 3f ff 	mov  -1, %g1	! ffffffff <raac_FlushCodec+0xffffeceb>
    10bc:	c2 27 bf cc 	st  %g1, [ %fp + -52 ]
    10c0:	10 80 00 03 	b  10cc <raac_UnpackADIFHeader+0x510>
    10c4:	01 00 00 00 	nop 
    10c8:	c0 27 bf cc 	clr  [ %fp + -52 ]
    10cc:	f0 07 bf cc 	ld  [ %fp + -52 ], %i0
    10d0:	81 c7 e0 08 	ret 
    10d4:	81 e8 00 00 	restore 

000010d8 <raac_SetRawBlockParams>:
    10d8:	9d e3 bf 88 	save  %sp, -120, %sp
    10dc:	2f 00 00 00 	sethi  %hi(0), %l7
    10e0:	7f ff fb c8 	call  0 <raac_UnpackADTSHeader-0x8>
    10e4:	ae 05 e0 00 	add  %l7, 0, %l7	! 0 <raac_UnpackADTSHeader-0x8>
    10e8:	f0 27 a0 44 	st  %i0, [ %fp + 0x44 ]
    10ec:	f2 27 a0 48 	st  %i1, [ %fp + 0x48 ]
    10f0:	f4 27 a0 4c 	st  %i2, [ %fp + 0x4c ]
    10f4:	f6 27 a0 50 	st  %i3, [ %fp + 0x50 ]
    10f8:	f8 27 a0 54 	st  %i4, [ %fp + 0x54 ]
    10fc:	c2 07 a0 44 	ld  [ %fp + 0x44 ], %g1
    1100:	80 a0 60 00 	cmp  %g1, 0
    1104:	02 80 00 07 	be  1120 <raac_SetRawBlockParams+0x48>
    1108:	01 00 00 00 	nop 
    110c:	c2 07 a0 44 	ld  [ %fp + 0x44 ], %g1
    1110:	c2 00 40 00 	ld  [ %g1 ], %g1
    1114:	80 a0 60 00 	cmp  %g1, 0
    1118:	12 80 00 06 	bne  1130 <raac_SetRawBlockParams+0x58>
    111c:	01 00 00 00 	nop 
    1120:	82 10 3f fe 	mov  -2, %g1	! fffffffe <raac_FlushCodec+0xffffecea>
    1124:	c2 27 bf ec 	st  %g1, [ %fp + -20 ]
    1128:	10 80 00 55 	b  127c <raac_SetRawBlockParams+0x1a4>
    112c:	01 00 00 00 	nop 
    1130:	c2 07 a0 44 	ld  [ %fp + 0x44 ], %g1
    1134:	c2 00 40 00 	ld  [ %g1 ], %g1
    1138:	c2 27 bf f0 	st  %g1, [ %fp + -16 ]
    113c:	c2 07 a0 48 	ld  [ %fp + 0x48 ], %g1
    1140:	80 a0 60 00 	cmp  %g1, 0
    1144:	12 80 00 2b 	bne  11f0 <raac_SetRawBlockParams+0x118>
    1148:	01 00 00 00 	nop 
    114c:	c4 07 a0 44 	ld  [ %fp + 0x44 ], %g2
    1150:	c2 07 a0 54 	ld  [ %fp + 0x54 ], %g1
    1154:	c2 20 a0 48 	st  %g1, [ %g2 + 0x48 ]
    1158:	c4 07 bf f0 	ld  [ %fp + -16 ], %g2
    115c:	c2 07 a0 4c 	ld  [ %fp + 0x4c ], %g1
    1160:	c2 20 a8 70 	st  %g1, [ %g2 + 0x870 ]
    1164:	c0 27 bf f4 	clr  [ %fp + -12 ]
    1168:	c2 07 bf f4 	ld  [ %fp + -12 ], %g1
    116c:	80 a0 60 0b 	cmp  %g1, 0xb
    1170:	04 80 00 04 	ble  1180 <raac_SetRawBlockParams+0xa8>
    1174:	01 00 00 00 	nop 
    1178:	10 80 00 16 	b  11d0 <raac_SetRawBlockParams+0xf8>
    117c:	01 00 00 00 	nop 
    1180:	03 00 00 00 	sethi  %hi(0), %g1
    1184:	82 10 60 00 	mov  %g1, %g1	! 0 <raac_UnpackADTSHeader-0x8>
    1188:	c6 05 c0 01 	ld  [ %l7 + %g1 ], %g3
    118c:	c2 07 bf f4 	ld  [ %fp + -12 ], %g1
    1190:	83 28 60 02 	sll  %g1, 2, %g1
    1194:	c4 07 a0 50 	ld  [ %fp + 0x50 ], %g2
    1198:	c2 00 c0 01 	ld  [ %g3 + %g1 ], %g1
    119c:	80 a0 80 01 	cmp  %g2, %g1
    11a0:	12 80 00 07 	bne  11bc <raac_SetRawBlockParams+0xe4>
    11a4:	01 00 00 00 	nop 
    11a8:	c4 07 bf f0 	ld  [ %fp + -16 ], %g2
    11ac:	c2 07 bf f4 	ld  [ %fp + -12 ], %g1
    11b0:	c2 20 a8 78 	st  %g1, [ %g2 + 0x878 ]
    11b4:	10 80 00 07 	b  11d0 <raac_SetRawBlockParams+0xf8>
    11b8:	01 00 00 00 	nop 
    11bc:	c2 07 bf f4 	ld  [ %fp + -12 ], %g1
    11c0:	82 00 60 01 	inc  %g1
    11c4:	c2 27 bf f4 	st  %g1, [ %fp + -12 ]
    11c8:	10 bf ff e8 	b  1168 <raac_SetRawBlockParams+0x90>
    11cc:	01 00 00 00 	nop 
    11d0:	c2 07 bf f4 	ld  [ %fp + -12 ], %g1
    11d4:	80 a0 60 0c 	cmp  %g1, 0xc
    11d8:	12 80 00 06 	bne  11f0 <raac_SetRawBlockParams+0x118>
    11dc:	01 00 00 00 	nop 
    11e0:	82 10 3f fb 	mov  -5, %g1	! fffffffb <raac_FlushCodec+0xffffece7>
    11e4:	c2 27 bf ec 	st  %g1, [ %fp + -20 ]
    11e8:	10 80 00 25 	b  127c <raac_SetRawBlockParams+0x1a4>
    11ec:	01 00 00 00 	nop 
    11f0:	c4 07 a0 44 	ld  [ %fp + 0x44 ], %g2
    11f4:	c2 07 bf f0 	ld  [ %fp + -16 ], %g1
    11f8:	c2 00 68 70 	ld  [ %g1 + 0x870 ], %g1
    11fc:	c2 20 a0 40 	st  %g1, [ %g2 + 0x40 ]
    1200:	c6 07 a0 44 	ld  [ %fp + 0x44 ], %g3
    1204:	03 00 00 00 	sethi  %hi(0), %g1
    1208:	82 10 60 00 	mov  %g1, %g1	! 0 <raac_UnpackADTSHeader-0x8>
    120c:	c4 05 c0 01 	ld  [ %l7 + %g1 ], %g2
    1210:	c2 07 bf f0 	ld  [ %fp + -16 ], %g1
    1214:	c2 00 68 78 	ld  [ %g1 + 0x878 ], %g1
    1218:	83 28 60 02 	sll  %g1, 2, %g1
    121c:	c2 00 80 01 	ld  [ %g2 + %g1 ], %g1
    1220:	c2 20 e0 44 	st  %g1, [ %g3 + 0x44 ]
    1224:	c2 07 bf f0 	ld  [ %fp + -16 ], %g1
    1228:	c2 00 68 78 	ld  [ %g1 + 0x878 ], %g1
    122c:	80 a0 60 0b 	cmp  %g1, 0xb
    1230:	14 80 00 0e 	bg  1268 <raac_SetRawBlockParams+0x190>
    1234:	01 00 00 00 	nop 
    1238:	c2 07 bf f0 	ld  [ %fp + -16 ], %g1
    123c:	c2 00 68 78 	ld  [ %g1 + 0x878 ], %g1
    1240:	80 a0 60 00 	cmp  %g1, 0
    1244:	06 80 00 09 	bl  1268 <raac_SetRawBlockParams+0x190>
    1248:	01 00 00 00 	nop 
    124c:	c2 07 a0 44 	ld  [ %fp + 0x44 ], %g1
    1250:	c2 00 60 48 	ld  [ %g1 + 0x48 ], %g1
    1254:	80 a0 60 01 	cmp  %g1, 1
    1258:	12 80 00 04 	bne  1268 <raac_SetRawBlockParams+0x190>
    125c:	01 00 00 00 	nop 
    1260:	10 80 00 06 	b  1278 <raac_SetRawBlockParams+0x1a0>
    1264:	01 00 00 00 	nop 
    1268:	82 10 3f ea 	mov  -22, %g1	! ffffffea <raac_FlushCodec+0xffffecd6>
    126c:	c2 27 bf ec 	st  %g1, [ %fp + -20 ]
    1270:	10 80 00 03 	b  127c <raac_SetRawBlockParams+0x1a4>
    1274:	01 00 00 00 	nop 
    1278:	c0 27 bf ec 	clr  [ %fp + -20 ]
    127c:	f0 07 bf ec 	ld  [ %fp + -20 ], %i0
    1280:	81 c7 e0 08 	ret 
    1284:	81 e8 00 00 	restore 

00001288 <raac_PrepareRawBlock>:
    1288:	9d e3 bf 90 	save  %sp, -112, %sp
    128c:	f0 27 a0 44 	st  %i0, [ %fp + 0x44 ]
    1290:	c2 07 a0 44 	ld  [ %fp + 0x44 ], %g1
    1294:	80 a0 60 00 	cmp  %g1, 0
    1298:	02 80 00 07 	be  12b4 <raac_PrepareRawBlock+0x2c>
    129c:	01 00 00 00 	nop 
    12a0:	c2 07 a0 44 	ld  [ %fp + 0x44 ], %g1
    12a4:	c2 00 40 00 	ld  [ %g1 ], %g1
    12a8:	80 a0 60 00 	cmp  %g1, 0
    12ac:	12 80 00 06 	bne  12c4 <raac_PrepareRawBlock+0x3c>
    12b0:	01 00 00 00 	nop 
    12b4:	82 10 3f fe 	mov  -2, %g1	! fffffffe <raac_FlushCodec+0xffffecea>
    12b8:	c2 27 bf f0 	st  %g1, [ %fp + -16 ]
    12bc:	10 80 00 13 	b  1308 <raac_PrepareRawBlock+0x80>
    12c0:	01 00 00 00 	nop 
    12c4:	c2 07 a0 44 	ld  [ %fp + 0x44 ], %g1
    12c8:	c2 00 40 00 	ld  [ %g1 ], %g1
    12cc:	c2 27 bf f4 	st  %g1, [ %fp + -12 ]
    12d0:	c4 07 a0 44 	ld  [ %fp + 0x44 ], %g2
    12d4:	82 10 3f ff 	mov  -1, %g1
    12d8:	c2 20 a0 24 	st  %g1, [ %g2 + 0x24 ]
    12dc:	c4 07 a0 44 	ld  [ %fp + 0x44 ], %g2
    12e0:	82 10 3f ff 	mov  -1, %g1
    12e4:	c2 20 a0 28 	st  %g1, [ %g2 + 0x28 ]
    12e8:	c4 07 a0 44 	ld  [ %fp + 0x44 ], %g2
    12ec:	82 10 3f ff 	mov  -1, %g1
    12f0:	c2 20 a0 2c 	st  %g1, [ %g2 + 0x2c ]
    12f4:	c2 07 a0 44 	ld  [ %fp + 0x44 ], %g1
    12f8:	c0 20 60 3c 	clr  [ %g1 + 0x3c ]
    12fc:	c2 07 a0 44 	ld  [ %fp + 0x44 ], %g1
    1300:	c0 20 60 50 	clr  [ %g1 + 0x50 ]
    1304:	c0 27 bf f0 	clr  [ %fp + -16 ]
    1308:	f0 07 bf f0 	ld  [ %fp + -16 ], %i0
    130c:	81 c7 e0 08 	ret 
    1310:	81 e8 00 00 	restore 

00001314 <raac_FlushCodec>:
    1314:	9d e3 bf 90 	save  %sp, -112, %sp
    1318:	f0 27 a0 44 	st  %i0, [ %fp + 0x44 ]
    131c:	c2 07 a0 44 	ld  [ %fp + 0x44 ], %g1
    1320:	80 a0 60 00 	cmp  %g1, 0
    1324:	02 80 00 07 	be  1340 <raac_FlushCodec+0x2c>
    1328:	01 00 00 00 	nop 
    132c:	c2 07 a0 44 	ld  [ %fp + 0x44 ], %g1
    1330:	c2 00 40 00 	ld  [ %g1 ], %g1
    1334:	80 a0 60 00 	cmp  %g1, 0
    1338:	12 80 00 06 	bne  1350 <raac_FlushCodec+0x3c>
    133c:	01 00 00 00 	nop 
    1340:	82 10 3f fe 	mov  -2, %g1	! fffffffe <raac_FlushCodec+0xffffecea>
    1344:	c2 27 bf f0 	st  %g1, [ %fp + -16 ]
    1348:	10 80 00 16 	b  13a0 <raac_FlushCodec+0x8c>
    134c:	01 00 00 00 	nop 
    1350:	c2 07 a0 44 	ld  [ %fp + 0x44 ], %g1
    1354:	c2 00 40 00 	ld  [ %g1 ], %g1
    1358:	c2 27 bf f4 	st  %g1, [ %fp + -12 ]
    135c:	c4 07 bf f4 	ld  [ %fp + -12 ], %g2
    1360:	03 00 00 0c 	sethi  %hi(0x3000), %g1
    1364:	82 10 60 48 	or  %g1, 0x48, %g1	! 3048 <raac_FlushCodec+0x1d34>
    1368:	82 00 80 01 	add  %g2, %g1, %g1
    136c:	90 10 00 01 	mov  %g1, %o0
    1370:	13 00 00 08 	sethi  %hi(0x2000), %o1
    1374:	40 00 00 00 	call  1374 <raac_FlushCodec+0x60>
    1378:	01 00 00 00 	nop 
    137c:	c4 07 bf f4 	ld  [ %fp + -12 ], %g2
    1380:	03 00 00 14 	sethi  %hi(0x5000), %g1
    1384:	82 10 60 48 	or  %g1, 0x48, %g1	! 5048 <raac_FlushCodec+0x3d34>
    1388:	82 00 80 01 	add  %g2, %g1, %g1
    138c:	90 10 00 01 	mov  %g1, %o0
    1390:	92 10 20 08 	mov  8, %o1
    1394:	40 00 00 00 	call  1394 <raac_FlushCodec+0x80>
    1398:	01 00 00 00 	nop 
    139c:	c0 27 bf f0 	clr  [ %fp + -16 ]
    13a0:	f0 07 bf f0 	ld  [ %fp + -16 ], %i0
    13a4:	81 c7 e0 08 	ret 
    13a8:	81 e8 00 00 	restore 
