
noiseless.o:     file format elf32-sparc
noiseless.o

Disassembly of section .text:

00000000 <raac_DecodeICSInfo-0x8>:
       0:	81 c3 e0 08 	retl 
       4:	ae 03 c0 17 	add  %o7, %l7, %l7

00000008 <raac_DecodeICSInfo>:
       8:	9d e3 bf 80 	save  %sp, -128, %sp
       c:	2f 00 00 00 	sethi  %hi(0), %l7
      10:	7f ff ff fc 	call  0 <raac_DecodeICSInfo-0x8>
      14:	ae 05 e0 00 	add  %l7, 0, %l7	! 0 <raac_DecodeICSInfo-0x8>
      18:	f0 27 a0 44 	st  %i0, [ %fp + 0x44 ]
      1c:	f2 27 a0 48 	st  %i1, [ %fp + 0x48 ]
      20:	f4 27 a0 4c 	st  %i2, [ %fp + 0x4c ]
      24:	e0 07 a0 48 	ld  [ %fp + 0x48 ], %l0
      28:	d0 07 a0 44 	ld  [ %fp + 0x44 ], %o0
      2c:	92 10 20 01 	mov  1, %o1
      30:	40 00 00 00 	call  30 <raac_DecodeICSInfo+0x28>
      34:	01 00 00 00 	nop 
      38:	82 10 00 08 	mov  %o0, %g1
      3c:	c2 2c 00 00 	stb  %g1, [ %l0 ]
      40:	e0 07 a0 48 	ld  [ %fp + 0x48 ], %l0
      44:	d0 07 a0 44 	ld  [ %fp + 0x44 ], %o0
      48:	92 10 20 02 	mov  2, %o1
      4c:	40 00 00 00 	call  4c <raac_DecodeICSInfo+0x44>
      50:	01 00 00 00 	nop 
      54:	82 10 00 08 	mov  %o0, %g1
      58:	c2 2c 20 01 	stb  %g1, [ %l0 + 1 ]
      5c:	e0 07 a0 48 	ld  [ %fp + 0x48 ], %l0
      60:	d0 07 a0 44 	ld  [ %fp + 0x44 ], %o0
      64:	92 10 20 01 	mov  1, %o1
      68:	40 00 00 00 	call  68 <raac_DecodeICSInfo+0x60>
      6c:	01 00 00 00 	nop 
      70:	82 10 00 08 	mov  %o0, %g1
      74:	c2 2c 20 02 	stb  %g1, [ %l0 + 2 ]
      78:	c2 07 a0 48 	ld  [ %fp + 0x48 ], %g1
      7c:	c2 08 60 01 	ldub  [ %g1 + 1 ], %g1
      80:	82 08 60 ff 	and  %g1, 0xff, %g1
      84:	80 a0 60 02 	cmp  %g1, 2
      88:	12 80 00 4a 	bne  1b0 <raac_DecodeICSInfo+0x1a8>
      8c:	01 00 00 00 	nop 
      90:	e0 07 a0 48 	ld  [ %fp + 0x48 ], %l0
      94:	d0 07 a0 44 	ld  [ %fp + 0x44 ], %o0
      98:	92 10 20 04 	mov  4, %o1
      9c:	40 00 00 00 	call  9c <raac_DecodeICSInfo+0x94>
      a0:	01 00 00 00 	nop 
      a4:	82 10 00 08 	mov  %o0, %g1
      a8:	c2 2c 20 03 	stb  %g1, [ %l0 + 3 ]
      ac:	e0 07 a0 48 	ld  [ %fp + 0x48 ], %l0
      b0:	d0 07 a0 44 	ld  [ %fp + 0x44 ], %o0
      b4:	92 10 20 07 	mov  7, %o1
      b8:	40 00 00 00 	call  b8 <raac_DecodeICSInfo+0xb0>
      bc:	01 00 00 00 	nop 
      c0:	82 10 00 08 	mov  %o0, %g1
      c4:	c2 2c 20 04 	stb  %g1, [ %l0 + 4 ]
      c8:	c4 07 a0 48 	ld  [ %fp + 0x48 ], %g2
      cc:	82 10 20 01 	mov  1, %g1
      d0:	c2 28 a0 31 	stb  %g1, [ %g2 + 0x31 ]
      d4:	c4 07 a0 48 	ld  [ %fp + 0x48 ], %g2
      d8:	82 10 20 01 	mov  1, %g1
      dc:	c2 28 a0 32 	stb  %g1, [ %g2 + 0x32 ]
      e0:	82 10 20 40 	mov  0x40, %g1
      e4:	c2 27 bf ec 	st  %g1, [ %fp + -20 ]
      e8:	c0 27 bf f0 	clr  [ %fp + -16 ]
      ec:	c2 07 bf f0 	ld  [ %fp + -16 ], %g1
      f0:	80 a0 60 06 	cmp  %g1, 6
      f4:	04 80 00 04 	ble  104 <raac_DecodeICSInfo+0xfc>
      f8:	01 00 00 00 	nop 
      fc:	10 80 00 83 	b  308 <raac_DecodeICSInfo+0x300>
     100:	01 00 00 00 	nop 
     104:	c2 07 a0 48 	ld  [ %fp + 0x48 ], %g1
     108:	c2 08 60 04 	ldub  [ %g1 + 4 ], %g1
     10c:	84 08 60 ff 	and  %g1, 0xff, %g2
     110:	c2 07 bf ec 	ld  [ %fp + -20 ], %g1
     114:	82 08 80 01 	and  %g2, %g1, %g1
     118:	80 a0 60 00 	cmp  %g1, 0
     11c:	02 80 00 11 	be  160 <raac_DecodeICSInfo+0x158>
     120:	01 00 00 00 	nop 
     124:	c4 07 a0 48 	ld  [ %fp + 0x48 ], %g2
     128:	c2 07 a0 48 	ld  [ %fp + 0x48 ], %g1
     12c:	c2 08 60 31 	ldub  [ %g1 + 0x31 ], %g1
     130:	82 08 60 ff 	and  %g1, 0xff, %g1
     134:	86 00 80 01 	add  %g2, %g1, %g3
     138:	c4 07 a0 48 	ld  [ %fp + 0x48 ], %g2
     13c:	c2 07 a0 48 	ld  [ %fp + 0x48 ], %g1
     140:	c2 08 60 31 	ldub  [ %g1 + 0x31 ], %g1
     144:	82 08 60 ff 	and  %g1, 0xff, %g1
     148:	82 00 80 01 	add  %g2, %g1, %g1
     14c:	c2 08 60 31 	ldub  [ %g1 + 0x31 ], %g1
     150:	82 00 60 01 	inc  %g1
     154:	c2 28 e0 31 	stb  %g1, [ %g3 + 0x31 ]
     158:	10 80 00 0e 	b  190 <raac_DecodeICSInfo+0x188>
     15c:	01 00 00 00 	nop 
     160:	c4 07 a0 48 	ld  [ %fp + 0x48 ], %g2
     164:	c2 07 a0 48 	ld  [ %fp + 0x48 ], %g1
     168:	c2 08 60 31 	ldub  [ %g1 + 0x31 ], %g1
     16c:	82 00 60 01 	inc  %g1
     170:	c2 28 a0 31 	stb  %g1, [ %g2 + 0x31 ]
     174:	c4 07 a0 48 	ld  [ %fp + 0x48 ], %g2
     178:	c2 07 a0 48 	ld  [ %fp + 0x48 ], %g1
     17c:	c2 08 60 31 	ldub  [ %g1 + 0x31 ], %g1
     180:	82 08 60 ff 	and  %g1, 0xff, %g1
     184:	84 00 80 01 	add  %g2, %g1, %g2
     188:	82 10 20 01 	mov  1, %g1
     18c:	c2 28 a0 31 	stb  %g1, [ %g2 + 0x31 ]
     190:	c2 07 bf ec 	ld  [ %fp + -20 ], %g1
     194:	83 38 60 01 	sra  %g1, 1, %g1
     198:	c2 27 bf ec 	st  %g1, [ %fp + -20 ]
     19c:	c2 07 bf f0 	ld  [ %fp + -16 ], %g1
     1a0:	82 00 60 01 	inc  %g1
     1a4:	c2 27 bf f0 	st  %g1, [ %fp + -16 ]
     1a8:	10 bf ff d1 	b  ec <raac_DecodeICSInfo+0xe4>
     1ac:	01 00 00 00 	nop 
     1b0:	e0 07 a0 48 	ld  [ %fp + 0x48 ], %l0
     1b4:	d0 07 a0 44 	ld  [ %fp + 0x44 ], %o0
     1b8:	92 10 20 06 	mov  6, %o1
     1bc:	40 00 00 00 	call  1bc <raac_DecodeICSInfo+0x1b4>
     1c0:	01 00 00 00 	nop 
     1c4:	82 10 00 08 	mov  %o0, %g1
     1c8:	c2 2c 20 03 	stb  %g1, [ %l0 + 3 ]
     1cc:	e0 07 a0 48 	ld  [ %fp + 0x48 ], %l0
     1d0:	d0 07 a0 44 	ld  [ %fp + 0x44 ], %o0
     1d4:	92 10 20 01 	mov  1, %o1
     1d8:	40 00 00 00 	call  1d8 <raac_DecodeICSInfo+0x1d0>
     1dc:	01 00 00 00 	nop 
     1e0:	82 10 00 08 	mov  %o0, %g1
     1e4:	c2 2c 20 05 	stb  %g1, [ %l0 + 5 ]
     1e8:	c2 07 a0 48 	ld  [ %fp + 0x48 ], %g1
     1ec:	c2 08 60 05 	ldub  [ %g1 + 5 ], %g1
     1f0:	82 08 60 ff 	and  %g1, 0xff, %g1
     1f4:	80 a0 60 00 	cmp  %g1, 0
     1f8:	02 80 00 3e 	be  2f0 <raac_DecodeICSInfo+0x2e8>
     1fc:	01 00 00 00 	nop 
     200:	e0 07 a0 48 	ld  [ %fp + 0x48 ], %l0
     204:	d0 07 a0 44 	ld  [ %fp + 0x44 ], %o0
     208:	92 10 20 01 	mov  1, %o1
     20c:	40 00 00 00 	call  20c <raac_DecodeICSInfo+0x204>
     210:	01 00 00 00 	nop 
     214:	82 10 00 08 	mov  %o0, %g1
     218:	c2 2c 20 06 	stb  %g1, [ %l0 + 6 ]
     21c:	c2 07 a0 48 	ld  [ %fp + 0x48 ], %g1
     220:	c2 08 60 06 	ldub  [ %g1 + 6 ], %g1
     224:	82 08 60 ff 	and  %g1, 0xff, %g1
     228:	80 a0 60 00 	cmp  %g1, 0
     22c:	02 80 00 09 	be  250 <raac_DecodeICSInfo+0x248>
     230:	01 00 00 00 	nop 
     234:	e0 07 a0 48 	ld  [ %fp + 0x48 ], %l0
     238:	d0 07 a0 44 	ld  [ %fp + 0x44 ], %o0
     23c:	92 10 20 05 	mov  5, %o1
     240:	40 00 00 00 	call  240 <raac_DecodeICSInfo+0x238>
     244:	01 00 00 00 	nop 
     248:	82 10 00 08 	mov  %o0, %g1
     24c:	c2 2c 20 07 	stb  %g1, [ %l0 + 7 ]
     250:	c0 27 bf f4 	clr  [ %fp + -12 ]
     254:	c2 07 a0 48 	ld  [ %fp + 0x48 ], %g1
     258:	c2 08 60 03 	ldub  [ %g1 + 3 ], %g1
     25c:	82 08 60 ff 	and  %g1, 0xff, %g1
     260:	c2 27 bf e4 	st  %g1, [ %fp + -28 ]
     264:	03 00 00 00 	sethi  %hi(0), %g1
     268:	82 10 60 00 	mov  %g1, %g1	! 0 <raac_DecodeICSInfo-0x8>
     26c:	c4 05 c0 01 	ld  [ %l7 + %g1 ], %g2
     270:	c2 07 a0 4c 	ld  [ %fp + 0x4c ], %g1
     274:	83 28 60 02 	sll  %g1, 2, %g1
     278:	c4 00 80 01 	ld  [ %g2 + %g1 ], %g2
     27c:	c4 27 bf e8 	st  %g2, [ %fp + -24 ]
     280:	c2 07 bf e8 	ld  [ %fp + -24 ], %g1
     284:	c4 07 bf e4 	ld  [ %fp + -28 ], %g2
     288:	80 a0 40 02 	cmp  %g1, %g2
     28c:	04 80 00 04 	ble  29c <raac_DecodeICSInfo+0x294>
     290:	01 00 00 00 	nop 
     294:	c2 07 bf e4 	ld  [ %fp + -28 ], %g1
     298:	c2 27 bf e8 	st  %g1, [ %fp + -24 ]
     29c:	c2 07 bf f4 	ld  [ %fp + -12 ], %g1
     2a0:	c4 07 bf e8 	ld  [ %fp + -24 ], %g2
     2a4:	80 a0 40 02 	cmp  %g1, %g2
     2a8:	06 80 00 04 	bl  2b8 <raac_DecodeICSInfo+0x2b0>
     2ac:	01 00 00 00 	nop 
     2b0:	10 80 00 10 	b  2f0 <raac_DecodeICSInfo+0x2e8>
     2b4:	01 00 00 00 	nop 
     2b8:	c4 07 a0 48 	ld  [ %fp + 0x48 ], %g2
     2bc:	c2 07 bf f4 	ld  [ %fp + -12 ], %g1
     2c0:	a0 00 80 01 	add  %g2, %g1, %l0
     2c4:	d0 07 a0 44 	ld  [ %fp + 0x44 ], %o0
     2c8:	92 10 20 01 	mov  1, %o1
     2cc:	40 00 00 00 	call  2cc <raac_DecodeICSInfo+0x2c4>
     2d0:	01 00 00 00 	nop 
     2d4:	82 10 00 08 	mov  %o0, %g1
     2d8:	c2 2c 20 08 	stb  %g1, [ %l0 + 8 ]
     2dc:	c2 07 bf f4 	ld  [ %fp + -12 ], %g1
     2e0:	82 00 60 01 	inc  %g1
     2e4:	c2 27 bf f4 	st  %g1, [ %fp + -12 ]
     2e8:	10 bf ff db 	b  254 <raac_DecodeICSInfo+0x24c>
     2ec:	01 00 00 00 	nop 
     2f0:	c4 07 a0 48 	ld  [ %fp + 0x48 ], %g2
     2f4:	82 10 20 01 	mov  1, %g1
     2f8:	c2 28 a0 31 	stb  %g1, [ %g2 + 0x31 ]
     2fc:	c4 07 a0 48 	ld  [ %fp + 0x48 ], %g2
     300:	82 10 20 01 	mov  1, %g1
     304:	c2 28 a0 32 	stb  %g1, [ %g2 + 0x32 ]
     308:	81 c7 e0 08 	ret 
     30c:	81 e8 00 00 	restore 

00000310 <DecodeSectionData>:
     310:	9d e3 bf 78 	save  %sp, -136, %sp
     314:	f0 27 a0 44 	st  %i0, [ %fp + 0x44 ]
     318:	f2 27 a0 48 	st  %i1, [ %fp + 0x48 ]
     31c:	f4 27 a0 4c 	st  %i2, [ %fp + 0x4c ]
     320:	f6 27 a0 50 	st  %i3, [ %fp + 0x50 ]
     324:	f8 27 a0 54 	st  %i4, [ %fp + 0x54 ]
     328:	c2 07 a0 48 	ld  [ %fp + 0x48 ], %g1
     32c:	80 a0 60 02 	cmp  %g1, 2
     330:	12 80 00 06 	bne  348 <DecodeSectionData+0x38>
     334:	01 00 00 00 	nop 
     338:	82 10 20 03 	mov  3, %g1	! 3 <raac_DecodeICSInfo-0x5>
     33c:	c2 27 bf d8 	st  %g1, [ %fp + -40 ]
     340:	10 80 00 04 	b  350 <DecodeSectionData+0x40>
     344:	01 00 00 00 	nop 
     348:	82 10 20 05 	mov  5, %g1	! 5 <raac_DecodeICSInfo-0x3>
     34c:	c2 27 bf d8 	st  %g1, [ %fp + -40 ]
     350:	c2 07 bf d8 	ld  [ %fp + -40 ], %g1
     354:	c2 27 bf e4 	st  %g1, [ %fp + -28 ]
     358:	84 10 20 01 	mov  1, %g2
     35c:	c2 07 bf e4 	ld  [ %fp + -28 ], %g1
     360:	83 28 80 01 	sll  %g2, %g1, %g1
     364:	82 00 7f ff 	add  %g1, -1, %g1
     368:	c2 27 bf dc 	st  %g1, [ %fp + -36 ]
     36c:	c0 27 bf f4 	clr  [ %fp + -12 ]
     370:	c4 07 bf f4 	ld  [ %fp + -12 ], %g2
     374:	c2 07 a0 4c 	ld  [ %fp + 0x4c ], %g1
     378:	80 a0 80 01 	cmp  %g2, %g1
     37c:	06 80 00 04 	bl  38c <DecodeSectionData+0x7c>
     380:	01 00 00 00 	nop 
     384:	10 80 00 38 	b  464 <DecodeSectionData+0x154>
     388:	01 00 00 00 	nop 
     38c:	c0 27 bf ec 	clr  [ %fp + -20 ]
     390:	c4 07 bf ec 	ld  [ %fp + -20 ], %g2
     394:	c2 07 a0 50 	ld  [ %fp + 0x50 ], %g1
     398:	80 a0 80 01 	cmp  %g2, %g1
     39c:	06 80 00 04 	bl  3ac <DecodeSectionData+0x9c>
     3a0:	01 00 00 00 	nop 
     3a4:	10 80 00 2b 	b  450 <DecodeSectionData+0x140>
     3a8:	01 00 00 00 	nop 
     3ac:	d0 07 a0 44 	ld  [ %fp + 0x44 ], %o0
     3b0:	92 10 20 04 	mov  4, %o1
     3b4:	40 00 00 00 	call  3b4 <DecodeSectionData+0xa4>
     3b8:	01 00 00 00 	nop 
     3bc:	d0 27 bf f0 	st  %o0, [ %fp + -16 ]
     3c0:	c0 27 bf e8 	clr  [ %fp + -24 ]
     3c4:	d0 07 a0 44 	ld  [ %fp + 0x44 ], %o0
     3c8:	d2 07 bf e4 	ld  [ %fp + -28 ], %o1
     3cc:	40 00 00 00 	call  3cc <DecodeSectionData+0xbc>
     3d0:	01 00 00 00 	nop 
     3d4:	d0 27 bf e0 	st  %o0, [ %fp + -32 ]
     3d8:	c4 07 bf e8 	ld  [ %fp + -24 ], %g2
     3dc:	c2 07 bf e0 	ld  [ %fp + -32 ], %g1
     3e0:	82 00 80 01 	add  %g2, %g1, %g1
     3e4:	c2 27 bf e8 	st  %g1, [ %fp + -24 ]
     3e8:	c4 07 bf e0 	ld  [ %fp + -32 ], %g2
     3ec:	c2 07 bf dc 	ld  [ %fp + -36 ], %g1
     3f0:	80 a0 80 01 	cmp  %g2, %g1
     3f4:	02 bf ff f4 	be  3c4 <DecodeSectionData+0xb4>
     3f8:	01 00 00 00 	nop 
     3fc:	c2 07 bf ec 	ld  [ %fp + -20 ], %g1
     400:	c4 07 bf e8 	ld  [ %fp + -24 ], %g2
     404:	82 00 40 02 	add  %g1, %g2, %g1
     408:	c2 27 bf ec 	st  %g1, [ %fp + -20 ]
     40c:	c2 07 bf e8 	ld  [ %fp + -24 ], %g1
     410:	82 00 7f ff 	add  %g1, -1, %g1
     414:	c2 27 bf e8 	st  %g1, [ %fp + -24 ]
     418:	80 a0 7f ff 	cmp  %g1, -1
     41c:	12 80 00 04 	bne  42c <DecodeSectionData+0x11c>
     420:	01 00 00 00 	nop 
     424:	10 bf ff db 	b  390 <DecodeSectionData+0x80>
     428:	01 00 00 00 	nop 
     42c:	88 07 a0 54 	add  %fp, 0x54, %g4
     430:	c2 01 00 00 	ld  [ %g4 ], %g1
     434:	c6 0f bf f3 	ldub  [ %fp + -13 ], %g3
     438:	84 10 00 01 	mov  %g1, %g2
     43c:	c6 28 80 00 	stb  %g3, [ %g2 ]
     440:	82 00 60 01 	inc  %g1
     444:	c2 21 00 00 	st  %g1, [ %g4 ]
     448:	10 bf ff f1 	b  40c <DecodeSectionData+0xfc>
     44c:	01 00 00 00 	nop 
     450:	c2 07 bf f4 	ld  [ %fp + -12 ], %g1
     454:	82 00 60 01 	inc  %g1
     458:	c2 27 bf f4 	st  %g1, [ %fp + -12 ]
     45c:	10 bf ff c5 	b  370 <DecodeSectionData+0x60>
     460:	01 00 00 00 	nop 
     464:	81 c7 e0 08 	ret 
     468:	81 e8 00 00 	restore 

0000046c <DecodeOneScaleFactor>:
     46c:	9d e3 bf 88 	save  %sp, -120, %sp
     470:	2f 00 00 00 	sethi  %hi(0), %l7
     474:	7f ff fe e3 	call  0 <raac_DecodeICSInfo-0x8>
     478:	ae 05 e0 00 	add  %l7, 0, %l7	! 0 <raac_DecodeICSInfo-0x8>
     47c:	f0 27 a0 44 	st  %i0, [ %fp + 0x44 ]
     480:	03 00 00 00 	sethi  %hi(0), %g1
     484:	82 10 60 00 	mov  %g1, %g1	! 0 <raac_DecodeICSInfo-0x8>
     488:	c2 05 c0 01 	ld  [ %l7 + %g1 ], %g1
     48c:	d0 07 a0 44 	ld  [ %fp + 0x44 ], %o0
     490:	d2 00 40 00 	ld  [ %g1 ], %o1
     494:	40 00 00 00 	call  494 <DecodeOneScaleFactor+0x28>
     498:	01 00 00 00 	nop 
     49c:	86 10 00 08 	mov  %o0, %g3
     4a0:	03 00 00 00 	sethi  %hi(0), %g1
     4a4:	82 10 60 00 	mov  %g1, %g1	! 0 <raac_DecodeICSInfo-0x8>
     4a8:	c2 05 c0 01 	ld  [ %l7 + %g1 ], %g1
     4ac:	84 10 20 20 	mov  0x20, %g2
     4b0:	c2 00 40 00 	ld  [ %g1 ], %g1
     4b4:	82 20 80 01 	sub  %g2, %g1, %g1
     4b8:	83 28 c0 01 	sll  %g3, %g1, %g1
     4bc:	c2 27 bf ec 	st  %g1, [ %fp + -20 ]
     4c0:	84 07 bf f0 	add  %fp, -16, %g2
     4c4:	03 00 00 00 	sethi  %hi(0), %g1
     4c8:	82 10 60 00 	mov  %g1, %g1	! 0 <raac_DecodeICSInfo-0x8>
     4cc:	c2 05 c0 01 	ld  [ %l7 + %g1 ], %g1
     4d0:	90 10 00 01 	mov  %g1, %o0
     4d4:	03 00 00 00 	sethi  %hi(0), %g1
     4d8:	82 10 60 00 	mov  %g1, %g1	! 0 <raac_DecodeICSInfo-0x8>
     4dc:	c2 05 c0 01 	ld  [ %l7 + %g1 ], %g1
     4e0:	92 10 00 01 	mov  %g1, %o1
     4e4:	d4 07 bf ec 	ld  [ %fp + -20 ], %o2
     4e8:	96 10 00 02 	mov  %g2, %o3
     4ec:	40 00 00 00 	call  4ec <DecodeOneScaleFactor+0x80>
     4f0:	01 00 00 00 	nop 
     4f4:	82 10 00 08 	mov  %o0, %g1
     4f8:	c2 27 bf f4 	st  %g1, [ %fp + -12 ]
     4fc:	d0 07 a0 44 	ld  [ %fp + 0x44 ], %o0
     500:	d2 07 bf f4 	ld  [ %fp + -12 ], %o1
     504:	40 00 00 00 	call  504 <DecodeOneScaleFactor+0x98>
     508:	01 00 00 00 	nop 
     50c:	c2 07 bf f0 	ld  [ %fp + -16 ], %g1
     510:	b0 10 00 01 	mov  %g1, %i0
     514:	81 c7 e0 08 	ret 
     518:	81 e8 00 00 	restore 

0000051c <DecodeScaleFactors>:
     51c:	9d e3 bf 78 	save  %sp, -136, %sp
     520:	f0 27 a0 44 	st  %i0, [ %fp + 0x44 ]
     524:	f2 27 a0 48 	st  %i1, [ %fp + 0x48 ]
     528:	f4 27 a0 4c 	st  %i2, [ %fp + 0x4c ]
     52c:	f6 27 a0 50 	st  %i3, [ %fp + 0x50 ]
     530:	f8 27 a0 54 	st  %i4, [ %fp + 0x54 ]
     534:	fa 27 a0 58 	st  %i5, [ %fp + 0x58 ]
     538:	c2 07 a0 50 	ld  [ %fp + 0x50 ], %g1
     53c:	c2 27 bf e0 	st  %g1, [ %fp + -32 ]
     540:	c0 27 bf dc 	clr  [ %fp + -36 ]
     544:	c2 07 a0 50 	ld  [ %fp + 0x50 ], %g1
     548:	82 00 7e a6 	add  %g1, -346, %g1
     54c:	c2 27 bf ec 	st  %g1, [ %fp + -20 ]
     550:	82 10 20 01 	mov  1, %g1
     554:	c2 27 bf e8 	st  %g1, [ %fp + -24 ]
     558:	c0 27 bf f4 	clr  [ %fp + -12 ]
     55c:	d0 07 a0 48 	ld  [ %fp + 0x48 ], %o0
     560:	d2 07 a0 4c 	ld  [ %fp + 0x4c ], %o1
     564:	40 00 00 00 	call  564 <DecodeScaleFactors+0x48>
     568:	01 00 00 00 	nop 
     56c:	84 10 00 08 	mov  %o0, %g2
     570:	c2 07 bf f4 	ld  [ %fp + -12 ], %g1
     574:	80 a0 40 02 	cmp  %g1, %g2
     578:	06 80 00 04 	bl  588 <DecodeScaleFactors+0x6c>
     57c:	01 00 00 00 	nop 
     580:	10 80 00 6d 	b  734 <DecodeScaleFactors+0x218>
     584:	01 00 00 00 	nop 
     588:	86 07 a0 54 	add  %fp, 0x54, %g3
     58c:	c4 00 c0 00 	ld  [ %g3 ], %g2
     590:	82 10 00 02 	mov  %g2, %g1
     594:	c2 08 40 00 	ldub  [ %g1 ], %g1
     598:	82 08 60 ff 	and  %g1, 0xff, %g1
     59c:	c2 27 bf f0 	st  %g1, [ %fp + -16 ]
     5a0:	84 00 a0 01 	inc  %g2
     5a4:	c4 20 c0 00 	st  %g2, [ %g3 ]
     5a8:	c2 07 bf f0 	ld  [ %fp + -16 ], %g1
     5ac:	80 a0 60 0e 	cmp  %g1, 0xe
     5b0:	02 80 00 08 	be  5d0 <DecodeScaleFactors+0xb4>
     5b4:	01 00 00 00 	nop 
     5b8:	c2 07 bf f0 	ld  [ %fp + -16 ], %g1
     5bc:	80 a0 60 0f 	cmp  %g1, 0xf
     5c0:	02 80 00 04 	be  5d0 <DecodeScaleFactors+0xb4>
     5c4:	01 00 00 00 	nop 
     5c8:	10 80 00 14 	b  618 <DecodeScaleFactors+0xfc>
     5cc:	01 00 00 00 	nop 
     5d0:	d0 07 a0 44 	ld  [ %fp + 0x44 ], %o0
     5d4:	7f ff ff a6 	call  46c <DecodeOneScaleFactor>
     5d8:	01 00 00 00 	nop 
     5dc:	82 10 00 08 	mov  %o0, %g1
     5e0:	c2 27 bf e4 	st  %g1, [ %fp + -28 ]
     5e4:	c4 07 bf dc 	ld  [ %fp + -36 ], %g2
     5e8:	c2 07 bf e4 	ld  [ %fp + -28 ], %g1
     5ec:	82 00 80 01 	add  %g2, %g1, %g1
     5f0:	c2 27 bf dc 	st  %g1, [ %fp + -36 ]
     5f4:	88 07 a0 58 	add  %fp, 0x58, %g4
     5f8:	c2 01 00 00 	ld  [ %g4 ], %g1
     5fc:	c6 17 bf de 	lduh  [ %fp + -34 ], %g3
     600:	84 10 00 01 	mov  %g1, %g2
     604:	c6 30 80 00 	sth  %g3, [ %g2 ]
     608:	82 00 60 02 	add  %g1, 2, %g1
     60c:	c2 21 00 00 	st  %g1, [ %g4 ]
     610:	10 80 00 44 	b  720 <DecodeScaleFactors+0x204>
     614:	01 00 00 00 	nop 
     618:	c2 07 bf f0 	ld  [ %fp + -16 ], %g1
     61c:	80 a0 60 0d 	cmp  %g1, 0xd
     620:	12 80 00 20 	bne  6a0 <DecodeScaleFactors+0x184>
     624:	01 00 00 00 	nop 
     628:	c2 07 bf e8 	ld  [ %fp + -24 ], %g1
     62c:	80 a0 60 00 	cmp  %g1, 0
     630:	02 80 00 0a 	be  658 <DecodeScaleFactors+0x13c>
     634:	01 00 00 00 	nop 
     638:	d0 07 a0 44 	ld  [ %fp + 0x44 ], %o0
     63c:	92 10 20 09 	mov  9, %o1
     640:	40 00 00 00 	call  640 <DecodeScaleFactors+0x124>
     644:	01 00 00 00 	nop 
     648:	d0 27 bf e4 	st  %o0, [ %fp + -28 ]
     64c:	c0 27 bf e8 	clr  [ %fp + -24 ]
     650:	10 80 00 07 	b  66c <DecodeScaleFactors+0x150>
     654:	01 00 00 00 	nop 
     658:	d0 07 a0 44 	ld  [ %fp + 0x44 ], %o0
     65c:	7f ff ff 84 	call  46c <DecodeOneScaleFactor>
     660:	01 00 00 00 	nop 
     664:	82 10 00 08 	mov  %o0, %g1
     668:	c2 27 bf e4 	st  %g1, [ %fp + -28 ]
     66c:	c4 07 bf ec 	ld  [ %fp + -20 ], %g2
     670:	c2 07 bf e4 	ld  [ %fp + -28 ], %g1
     674:	82 00 80 01 	add  %g2, %g1, %g1
     678:	c2 27 bf ec 	st  %g1, [ %fp + -20 ]
     67c:	88 07 a0 58 	add  %fp, 0x58, %g4
     680:	c2 01 00 00 	ld  [ %g4 ], %g1
     684:	c6 17 bf ee 	lduh  [ %fp + -18 ], %g3
     688:	84 10 00 01 	mov  %g1, %g2
     68c:	c6 30 80 00 	sth  %g3, [ %g2 ]
     690:	82 00 60 02 	add  %g1, 2, %g1
     694:	c2 21 00 00 	st  %g1, [ %g4 ]
     698:	10 80 00 22 	b  720 <DecodeScaleFactors+0x204>
     69c:	01 00 00 00 	nop 
     6a0:	c2 07 bf f0 	ld  [ %fp + -16 ], %g1
     6a4:	80 a0 60 00 	cmp  %g1, 0
     6a8:	04 80 00 18 	ble  708 <DecodeScaleFactors+0x1ec>
     6ac:	01 00 00 00 	nop 
     6b0:	c2 07 bf f0 	ld  [ %fp + -16 ], %g1
     6b4:	80 a0 60 0b 	cmp  %g1, 0xb
     6b8:	14 80 00 14 	bg  708 <DecodeScaleFactors+0x1ec>
     6bc:	01 00 00 00 	nop 
     6c0:	d0 07 a0 44 	ld  [ %fp + 0x44 ], %o0
     6c4:	7f ff ff 6a 	call  46c <DecodeOneScaleFactor>
     6c8:	01 00 00 00 	nop 
     6cc:	82 10 00 08 	mov  %o0, %g1
     6d0:	c2 27 bf e4 	st  %g1, [ %fp + -28 ]
     6d4:	c4 07 bf e0 	ld  [ %fp + -32 ], %g2
     6d8:	c2 07 bf e4 	ld  [ %fp + -28 ], %g1
     6dc:	82 00 80 01 	add  %g2, %g1, %g1
     6e0:	c2 27 bf e0 	st  %g1, [ %fp + -32 ]
     6e4:	88 07 a0 58 	add  %fp, 0x58, %g4
     6e8:	c2 01 00 00 	ld  [ %g4 ], %g1
     6ec:	c6 17 bf e2 	lduh  [ %fp + -30 ], %g3
     6f0:	84 10 00 01 	mov  %g1, %g2
     6f4:	c6 30 80 00 	sth  %g3, [ %g2 ]
     6f8:	82 00 60 02 	add  %g1, 2, %g1
     6fc:	c2 21 00 00 	st  %g1, [ %g4 ]
     700:	10 80 00 08 	b  720 <DecodeScaleFactors+0x204>
     704:	01 00 00 00 	nop 
     708:	82 07 a0 58 	add  %fp, 0x58, %g1
     70c:	c4 00 40 00 	ld  [ %g1 ], %g2
     710:	86 10 00 02 	mov  %g2, %g3
     714:	c0 30 c0 00 	clrh  [ %g3 ]
     718:	84 00 a0 02 	add  %g2, 2, %g2
     71c:	c4 20 40 00 	st  %g2, [ %g1 ]
     720:	c2 07 bf f4 	ld  [ %fp + -12 ], %g1
     724:	82 00 60 01 	inc  %g1
     728:	c2 27 bf f4 	st  %g1, [ %fp + -12 ]
     72c:	10 bf ff 8c 	b  55c <DecodeScaleFactors+0x40>
     730:	01 00 00 00 	nop 
     734:	81 c7 e0 08 	ret 
     738:	81 e8 00 00 	restore 

0000073c <DecodePulseInfo>:
     73c:	9d e3 bf 90 	save  %sp, -112, %sp
     740:	f0 27 a0 44 	st  %i0, [ %fp + 0x44 ]
     744:	f2 27 a0 48 	st  %i1, [ %fp + 0x48 ]
     748:	e0 07 a0 48 	ld  [ %fp + 0x48 ], %l0
     74c:	d0 07 a0 44 	ld  [ %fp + 0x44 ], %o0
     750:	92 10 20 02 	mov  2, %o1
     754:	40 00 00 00 	call  754 <DecodePulseInfo+0x18>
     758:	01 00 00 00 	nop 
     75c:	82 10 00 08 	mov  %o0, %g1
     760:	82 00 60 01 	inc  %g1
     764:	c2 2c 20 01 	stb  %g1, [ %l0 + 1 ]
     768:	e0 07 a0 48 	ld  [ %fp + 0x48 ], %l0
     76c:	d0 07 a0 44 	ld  [ %fp + 0x44 ], %o0
     770:	92 10 20 06 	mov  6, %o1
     774:	40 00 00 00 	call  774 <DecodePulseInfo+0x38>
     778:	01 00 00 00 	nop 
     77c:	82 10 00 08 	mov  %o0, %g1
     780:	c2 2c 20 02 	stb  %g1, [ %l0 + 2 ]
     784:	c0 27 bf f4 	clr  [ %fp + -12 ]
     788:	c2 07 a0 48 	ld  [ %fp + 0x48 ], %g1
     78c:	c2 08 60 01 	ldub  [ %g1 + 1 ], %g1
     790:	84 08 60 ff 	and  %g1, 0xff, %g2
     794:	c2 07 bf f4 	ld  [ %fp + -12 ], %g1
     798:	80 a0 40 02 	cmp  %g1, %g2
     79c:	06 80 00 04 	bl  7ac <DecodePulseInfo+0x70>
     7a0:	01 00 00 00 	nop 
     7a4:	10 80 00 19 	b  808 <DecodePulseInfo+0xcc>
     7a8:	01 00 00 00 	nop 
     7ac:	c4 07 a0 48 	ld  [ %fp + 0x48 ], %g2
     7b0:	c2 07 bf f4 	ld  [ %fp + -12 ], %g1
     7b4:	a0 00 80 01 	add  %g2, %g1, %l0
     7b8:	d0 07 a0 44 	ld  [ %fp + 0x44 ], %o0
     7bc:	92 10 20 05 	mov  5, %o1
     7c0:	40 00 00 00 	call  7c0 <DecodePulseInfo+0x84>
     7c4:	01 00 00 00 	nop 
     7c8:	82 10 00 08 	mov  %o0, %g1
     7cc:	c2 2c 20 03 	stb  %g1, [ %l0 + 3 ]
     7d0:	c4 07 a0 48 	ld  [ %fp + 0x48 ], %g2
     7d4:	c2 07 bf f4 	ld  [ %fp + -12 ], %g1
     7d8:	a0 00 80 01 	add  %g2, %g1, %l0
     7dc:	d0 07 a0 44 	ld  [ %fp + 0x44 ], %o0
     7e0:	92 10 20 04 	mov  4, %o1
     7e4:	40 00 00 00 	call  7e4 <DecodePulseInfo+0xa8>
     7e8:	01 00 00 00 	nop 
     7ec:	82 10 00 08 	mov  %o0, %g1
     7f0:	c2 2c 20 07 	stb  %g1, [ %l0 + 7 ]
     7f4:	c2 07 bf f4 	ld  [ %fp + -12 ], %g1
     7f8:	82 00 60 01 	inc  %g1
     7fc:	c2 27 bf f4 	st  %g1, [ %fp + -12 ]
     800:	10 bf ff e2 	b  788 <DecodePulseInfo+0x4c>
     804:	01 00 00 00 	nop 
     808:	81 c7 e0 08 	ret 
     80c:	81 e8 00 00 	restore 

00000810 <DecodeTNSInfo>:
     810:	9d e3 bf 60 	save  %sp, -160, %sp
     814:	f0 27 a0 44 	st  %i0, [ %fp + 0x44 ]
     818:	f2 27 a0 48 	st  %i1, [ %fp + 0x48 ]
     81c:	f4 27 a0 4c 	st  %i2, [ %fp + 0x4c ]
     820:	f6 27 a0 50 	st  %i3, [ %fp + 0x50 ]
     824:	82 10 20 02 	mov  2, %g1
     828:	c2 2f bf d8 	stb  %g1, [ %fp + -40 ]
     82c:	82 10 20 04 	mov  4, %g1
     830:	c2 2f bf d9 	stb  %g1, [ %fp + -39 ]
     834:	82 10 20 08 	mov  8, %g1
     838:	c2 2f bf da 	stb  %g1, [ %fp + -38 ]
     83c:	82 10 3f fc 	mov  -4, %g1
     840:	c2 2f bf d0 	stb  %g1, [ %fp + -48 ]
     844:	82 10 3f f8 	mov  -8, %g1
     848:	c2 2f bf d1 	stb  %g1, [ %fp + -47 ]
     84c:	82 10 3f f0 	mov  -16, %g1
     850:	c2 2f bf d2 	stb  %g1, [ %fp + -46 ]
     854:	c2 07 a0 4c 	ld  [ %fp + 0x4c ], %g1
     858:	82 00 60 11 	add  %g1, 0x11, %g1
     85c:	c2 27 bf cc 	st  %g1, [ %fp + -52 ]
     860:	c2 07 a0 4c 	ld  [ %fp + 0x4c ], %g1
     864:	82 00 60 19 	add  %g1, 0x19, %g1
     868:	c2 27 bf c8 	st  %g1, [ %fp + -56 ]
     86c:	c2 07 a0 4c 	ld  [ %fp + 0x4c ], %g1
     870:	82 00 60 21 	add  %g1, 0x21, %g1
     874:	c2 27 bf c4 	st  %g1, [ %fp + -60 ]
     878:	c2 07 a0 48 	ld  [ %fp + 0x48 ], %g1
     87c:	80 a0 60 02 	cmp  %g1, 2
     880:	12 80 00 8d 	bne  ab4 <DecodeTNSInfo+0x2a4>
     884:	01 00 00 00 	nop 
     888:	c0 27 bf f0 	clr  [ %fp + -16 ]
     88c:	c2 07 bf f0 	ld  [ %fp + -16 ], %g1
     890:	80 a0 60 07 	cmp  %g1, 7
     894:	04 80 00 04 	ble  8a4 <DecodeTNSInfo+0x94>
     898:	01 00 00 00 	nop 
     89c:	10 80 01 0c 	b  ccc <DecodeTNSInfo+0x4bc>
     8a0:	01 00 00 00 	nop 
     8a4:	c4 07 a0 4c 	ld  [ %fp + 0x4c ], %g2
     8a8:	c2 07 bf f0 	ld  [ %fp + -16 ], %g1
     8ac:	a0 00 80 01 	add  %g2, %g1, %l0
     8b0:	d0 07 a0 44 	ld  [ %fp + 0x44 ], %o0
     8b4:	92 10 20 01 	mov  1, %o1
     8b8:	40 00 00 00 	call  8b8 <DecodeTNSInfo+0xa8>
     8bc:	01 00 00 00 	nop 
     8c0:	82 10 00 08 	mov  %o0, %g1
     8c4:	c2 2c 20 01 	stb  %g1, [ %l0 + 1 ]
     8c8:	c4 07 a0 4c 	ld  [ %fp + 0x4c ], %g2
     8cc:	c2 07 bf f0 	ld  [ %fp + -16 ], %g1
     8d0:	82 00 80 01 	add  %g2, %g1, %g1
     8d4:	c2 08 60 01 	ldub  [ %g1 + 1 ], %g1
     8d8:	82 08 60 ff 	and  %g1, 0xff, %g1
     8dc:	80 a0 60 00 	cmp  %g1, 0
     8e0:	02 80 00 70 	be  aa0 <DecodeTNSInfo+0x290>
     8e4:	01 00 00 00 	nop 
     8e8:	c4 07 a0 4c 	ld  [ %fp + 0x4c ], %g2
     8ec:	c2 07 bf f0 	ld  [ %fp + -16 ], %g1
     8f0:	a0 00 80 01 	add  %g2, %g1, %l0
     8f4:	d0 07 a0 44 	ld  [ %fp + 0x44 ], %o0
     8f8:	92 10 20 01 	mov  1, %o1
     8fc:	40 00 00 00 	call  8fc <DecodeTNSInfo+0xec>
     900:	01 00 00 00 	nop 
     904:	82 10 00 08 	mov  %o0, %g1
     908:	82 00 60 03 	add  %g1, 3, %g1
     90c:	c2 2c 20 09 	stb  %g1, [ %l0 + 9 ]
     910:	e0 07 bf cc 	ld  [ %fp + -52 ], %l0
     914:	d0 07 a0 44 	ld  [ %fp + 0x44 ], %o0
     918:	92 10 20 04 	mov  4, %o1
     91c:	40 00 00 00 	call  91c <DecodeTNSInfo+0x10c>
     920:	01 00 00 00 	nop 
     924:	82 10 00 08 	mov  %o0, %g1
     928:	c2 2c 00 00 	stb  %g1, [ %l0 ]
     92c:	e0 07 bf c8 	ld  [ %fp + -56 ], %l0
     930:	d0 07 a0 44 	ld  [ %fp + 0x44 ], %o0
     934:	92 10 20 03 	mov  3, %o1
     938:	40 00 00 00 	call  938 <DecodeTNSInfo+0x128>
     93c:	01 00 00 00 	nop 
     940:	82 10 00 08 	mov  %o0, %g1
     944:	c2 2c 00 00 	stb  %g1, [ %l0 ]
     948:	c2 07 bf c8 	ld  [ %fp + -56 ], %g1
     94c:	c2 08 40 00 	ldub  [ %g1 ], %g1
     950:	82 08 60 ff 	and  %g1, 0xff, %g1
     954:	80 a0 60 00 	cmp  %g1, 0
     958:	02 80 00 4c 	be  a88 <DecodeTNSInfo+0x278>
     95c:	01 00 00 00 	nop 
     960:	84 07 bf c4 	add  %fp, -60, %g2
     964:	c2 00 80 00 	ld  [ %g2 ], %g1
     968:	a0 10 00 01 	mov  %g1, %l0
     96c:	82 00 60 01 	inc  %g1
     970:	c2 20 80 00 	st  %g1, [ %g2 ]
     974:	d0 07 a0 44 	ld  [ %fp + 0x44 ], %o0
     978:	92 10 20 01 	mov  1, %o1
     97c:	40 00 00 00 	call  97c <DecodeTNSInfo+0x16c>
     980:	01 00 00 00 	nop 
     984:	82 10 00 08 	mov  %o0, %g1
     988:	c2 2c 00 00 	stb  %g1, [ %l0 ]
     98c:	d0 07 a0 44 	ld  [ %fp + 0x44 ], %o0
     990:	92 10 20 01 	mov  1, %o1
     994:	40 00 00 00 	call  994 <DecodeTNSInfo+0x184>
     998:	01 00 00 00 	nop 
     99c:	d0 27 bf e4 	st  %o0, [ %fp + -28 ]
     9a0:	c4 07 a0 4c 	ld  [ %fp + 0x4c ], %g2
     9a4:	c2 07 bf f0 	ld  [ %fp + -16 ], %g1
     9a8:	82 00 80 01 	add  %g2, %g1, %g1
     9ac:	c2 08 60 09 	ldub  [ %g1 + 9 ], %g1
     9b0:	84 08 60 ff 	and  %g1, 0xff, %g2
     9b4:	c2 07 bf e4 	ld  [ %fp + -28 ], %g1
     9b8:	82 20 80 01 	sub  %g2, %g1, %g1
     9bc:	c2 27 bf e8 	st  %g1, [ %fp + -24 ]
     9c0:	c4 07 bf e8 	ld  [ %fp + -24 ], %g2
     9c4:	82 07 bf f8 	add  %fp, -8, %g1
     9c8:	82 00 40 02 	add  %g1, %g2, %g1
     9cc:	c2 08 7f de 	ldub  [ %g1 + -34 ], %g1
     9d0:	c2 2f bf e2 	stb  %g1, [ %fp + -30 ]
     9d4:	c4 07 bf e8 	ld  [ %fp + -24 ], %g2
     9d8:	82 07 bf f8 	add  %fp, -8, %g1
     9dc:	82 00 40 02 	add  %g1, %g2, %g1
     9e0:	c2 08 7f d6 	ldub  [ %g1 + -42 ], %g1
     9e4:	c2 2f bf e1 	stb  %g1, [ %fp + -31 ]
     9e8:	c0 27 bf f4 	clr  [ %fp + -12 ]
     9ec:	c2 07 bf c8 	ld  [ %fp + -56 ], %g1
     9f0:	c2 08 40 00 	ldub  [ %g1 ], %g1
     9f4:	84 08 60 ff 	and  %g1, 0xff, %g2
     9f8:	c2 07 bf f4 	ld  [ %fp + -12 ], %g1
     9fc:	80 a0 40 02 	cmp  %g1, %g2
     a00:	06 80 00 04 	bl  a10 <DecodeTNSInfo+0x200>
     a04:	01 00 00 00 	nop 
     a08:	10 80 00 20 	b  a88 <DecodeTNSInfo+0x278>
     a0c:	01 00 00 00 	nop 
     a10:	d0 07 a0 44 	ld  [ %fp + 0x44 ], %o0
     a14:	d2 07 bf e8 	ld  [ %fp + -24 ], %o1
     a18:	40 00 00 00 	call  a18 <DecodeTNSInfo+0x208>
     a1c:	01 00 00 00 	nop 
     a20:	82 10 00 08 	mov  %o0, %g1
     a24:	c2 2f bf e3 	stb  %g1, [ %fp + -29 ]
     a28:	c4 0f bf e3 	ldub  [ %fp + -29 ], %g2
     a2c:	c2 0f bf e2 	ldub  [ %fp + -30 ], %g1
     a30:	82 08 80 01 	and  %g2, %g1, %g1
     a34:	83 28 60 18 	sll  %g1, 0x18, %g1
     a38:	83 38 60 18 	sra  %g1, 0x18, %g1
     a3c:	80 a0 60 00 	cmp  %g1, 0
     a40:	02 80 00 06 	be  a58 <DecodeTNSInfo+0x248>
     a44:	01 00 00 00 	nop 
     a48:	c2 0f bf e3 	ldub  [ %fp + -29 ], %g1
     a4c:	c4 0f bf e1 	ldub  [ %fp + -31 ], %g2
     a50:	82 10 40 02 	or  %g1, %g2, %g1
     a54:	c2 2f bf e3 	stb  %g1, [ %fp + -29 ]
     a58:	88 07 a0 50 	add  %fp, 0x50, %g4
     a5c:	c2 01 00 00 	ld  [ %g4 ], %g1
     a60:	86 10 00 01 	mov  %g1, %g3
     a64:	c4 0f bf e3 	ldub  [ %fp + -29 ], %g2
     a68:	c4 28 c0 00 	stb  %g2, [ %g3 ]
     a6c:	82 00 60 01 	inc  %g1
     a70:	c2 21 00 00 	st  %g1, [ %g4 ]
     a74:	c2 07 bf f4 	ld  [ %fp + -12 ], %g1
     a78:	82 00 60 01 	inc  %g1
     a7c:	c2 27 bf f4 	st  %g1, [ %fp + -12 ]
     a80:	10 bf ff db 	b  9ec <DecodeTNSInfo+0x1dc>
     a84:	01 00 00 00 	nop 
     a88:	c2 07 bf cc 	ld  [ %fp + -52 ], %g1
     a8c:	82 00 60 01 	inc  %g1
     a90:	c2 27 bf cc 	st  %g1, [ %fp + -52 ]
     a94:	c2 07 bf c8 	ld  [ %fp + -56 ], %g1
     a98:	82 00 60 01 	inc  %g1
     a9c:	c2 27 bf c8 	st  %g1, [ %fp + -56 ]
     aa0:	c2 07 bf f0 	ld  [ %fp + -16 ], %g1
     aa4:	82 00 60 01 	inc  %g1
     aa8:	c2 27 bf f0 	st  %g1, [ %fp + -16 ]
     aac:	10 bf ff 78 	b  88c <DecodeTNSInfo+0x7c>
     ab0:	01 00 00 00 	nop 
     ab4:	e0 07 a0 4c 	ld  [ %fp + 0x4c ], %l0
     ab8:	d0 07 a0 44 	ld  [ %fp + 0x44 ], %o0
     abc:	92 10 20 02 	mov  2, %o1
     ac0:	40 00 00 00 	call  ac0 <DecodeTNSInfo+0x2b0>
     ac4:	01 00 00 00 	nop 
     ac8:	82 10 00 08 	mov  %o0, %g1
     acc:	c2 2c 20 01 	stb  %g1, [ %l0 + 1 ]
     ad0:	c2 07 a0 4c 	ld  [ %fp + 0x4c ], %g1
     ad4:	c2 08 60 01 	ldub  [ %g1 + 1 ], %g1
     ad8:	82 08 60 ff 	and  %g1, 0xff, %g1
     adc:	80 a0 60 00 	cmp  %g1, 0
     ae0:	02 80 00 0a 	be  b08 <DecodeTNSInfo+0x2f8>
     ae4:	01 00 00 00 	nop 
     ae8:	e0 07 a0 4c 	ld  [ %fp + 0x4c ], %l0
     aec:	d0 07 a0 44 	ld  [ %fp + 0x44 ], %o0
     af0:	92 10 20 01 	mov  1, %o1
     af4:	40 00 00 00 	call  af4 <DecodeTNSInfo+0x2e4>
     af8:	01 00 00 00 	nop 
     afc:	82 10 00 08 	mov  %o0, %g1
     b00:	82 00 60 03 	add  %g1, 3, %g1
     b04:	c2 2c 20 09 	stb  %g1, [ %l0 + 9 ]
     b08:	c0 27 bf ec 	clr  [ %fp + -20 ]
     b0c:	c2 07 a0 4c 	ld  [ %fp + 0x4c ], %g1
     b10:	c2 08 60 01 	ldub  [ %g1 + 1 ], %g1
     b14:	84 08 60 ff 	and  %g1, 0xff, %g2
     b18:	c2 07 bf ec 	ld  [ %fp + -20 ], %g1
     b1c:	80 a0 40 02 	cmp  %g1, %g2
     b20:	06 80 00 04 	bl  b30 <DecodeTNSInfo+0x320>
     b24:	01 00 00 00 	nop 
     b28:	10 80 00 69 	b  ccc <DecodeTNSInfo+0x4bc>
     b2c:	01 00 00 00 	nop 
     b30:	e0 07 bf cc 	ld  [ %fp + -52 ], %l0
     b34:	d0 07 a0 44 	ld  [ %fp + 0x44 ], %o0
     b38:	92 10 20 06 	mov  6, %o1
     b3c:	40 00 00 00 	call  b3c <DecodeTNSInfo+0x32c>
     b40:	01 00 00 00 	nop 
     b44:	82 10 00 08 	mov  %o0, %g1
     b48:	c2 2c 00 00 	stb  %g1, [ %l0 ]
     b4c:	e0 07 bf c8 	ld  [ %fp + -56 ], %l0
     b50:	d0 07 a0 44 	ld  [ %fp + 0x44 ], %o0
     b54:	92 10 20 05 	mov  5, %o1
     b58:	40 00 00 00 	call  b58 <DecodeTNSInfo+0x348>
     b5c:	01 00 00 00 	nop 
     b60:	82 10 00 08 	mov  %o0, %g1
     b64:	c2 2c 00 00 	stb  %g1, [ %l0 ]
     b68:	c2 07 bf c8 	ld  [ %fp + -56 ], %g1
     b6c:	c2 08 40 00 	ldub  [ %g1 ], %g1
     b70:	82 08 60 ff 	and  %g1, 0xff, %g1
     b74:	80 a0 60 00 	cmp  %g1, 0
     b78:	02 80 00 4a 	be  ca0 <DecodeTNSInfo+0x490>
     b7c:	01 00 00 00 	nop 
     b80:	84 07 bf c4 	add  %fp, -60, %g2
     b84:	c2 00 80 00 	ld  [ %g2 ], %g1
     b88:	a0 10 00 01 	mov  %g1, %l0
     b8c:	82 00 60 01 	inc  %g1
     b90:	c2 20 80 00 	st  %g1, [ %g2 ]
     b94:	d0 07 a0 44 	ld  [ %fp + 0x44 ], %o0
     b98:	92 10 20 01 	mov  1, %o1
     b9c:	40 00 00 00 	call  b9c <DecodeTNSInfo+0x38c>
     ba0:	01 00 00 00 	nop 
     ba4:	82 10 00 08 	mov  %o0, %g1
     ba8:	c2 2c 00 00 	stb  %g1, [ %l0 ]
     bac:	d0 07 a0 44 	ld  [ %fp + 0x44 ], %o0
     bb0:	92 10 20 01 	mov  1, %o1
     bb4:	40 00 00 00 	call  bb4 <DecodeTNSInfo+0x3a4>
     bb8:	01 00 00 00 	nop 
     bbc:	d0 27 bf e4 	st  %o0, [ %fp + -28 ]
     bc0:	c2 07 a0 4c 	ld  [ %fp + 0x4c ], %g1
     bc4:	c2 08 60 09 	ldub  [ %g1 + 9 ], %g1
     bc8:	84 08 60 ff 	and  %g1, 0xff, %g2
     bcc:	c2 07 bf e4 	ld  [ %fp + -28 ], %g1
     bd0:	82 20 80 01 	sub  %g2, %g1, %g1
     bd4:	c2 27 bf e8 	st  %g1, [ %fp + -24 ]
     bd8:	c4 07 bf e8 	ld  [ %fp + -24 ], %g2
     bdc:	82 07 bf f8 	add  %fp, -8, %g1
     be0:	82 00 40 02 	add  %g1, %g2, %g1
     be4:	c2 08 7f de 	ldub  [ %g1 + -34 ], %g1
     be8:	c2 2f bf e2 	stb  %g1, [ %fp + -30 ]
     bec:	c4 07 bf e8 	ld  [ %fp + -24 ], %g2
     bf0:	82 07 bf f8 	add  %fp, -8, %g1
     bf4:	82 00 40 02 	add  %g1, %g2, %g1
     bf8:	c2 08 7f d6 	ldub  [ %g1 + -42 ], %g1
     bfc:	c2 2f bf e1 	stb  %g1, [ %fp + -31 ]
     c00:	c0 27 bf f4 	clr  [ %fp + -12 ]
     c04:	c2 07 bf c8 	ld  [ %fp + -56 ], %g1
     c08:	c2 08 40 00 	ldub  [ %g1 ], %g1
     c0c:	84 08 60 ff 	and  %g1, 0xff, %g2
     c10:	c2 07 bf f4 	ld  [ %fp + -12 ], %g1
     c14:	80 a0 40 02 	cmp  %g1, %g2
     c18:	06 80 00 04 	bl  c28 <DecodeTNSInfo+0x418>
     c1c:	01 00 00 00 	nop 
     c20:	10 80 00 20 	b  ca0 <DecodeTNSInfo+0x490>
     c24:	01 00 00 00 	nop 
     c28:	d0 07 a0 44 	ld  [ %fp + 0x44 ], %o0
     c2c:	d2 07 bf e8 	ld  [ %fp + -24 ], %o1
     c30:	40 00 00 00 	call  c30 <DecodeTNSInfo+0x420>
     c34:	01 00 00 00 	nop 
     c38:	82 10 00 08 	mov  %o0, %g1
     c3c:	c2 2f bf e3 	stb  %g1, [ %fp + -29 ]
     c40:	c4 0f bf e3 	ldub  [ %fp + -29 ], %g2
     c44:	c2 0f bf e2 	ldub  [ %fp + -30 ], %g1
     c48:	82 08 80 01 	and  %g2, %g1, %g1
     c4c:	83 28 60 18 	sll  %g1, 0x18, %g1
     c50:	83 38 60 18 	sra  %g1, 0x18, %g1
     c54:	80 a0 60 00 	cmp  %g1, 0
     c58:	02 80 00 06 	be  c70 <DecodeTNSInfo+0x460>
     c5c:	01 00 00 00 	nop 
     c60:	c2 0f bf e3 	ldub  [ %fp + -29 ], %g1
     c64:	c4 0f bf e1 	ldub  [ %fp + -31 ], %g2
     c68:	82 10 40 02 	or  %g1, %g2, %g1
     c6c:	c2 2f bf e3 	stb  %g1, [ %fp + -29 ]
     c70:	88 07 a0 50 	add  %fp, 0x50, %g4
     c74:	c2 01 00 00 	ld  [ %g4 ], %g1
     c78:	86 10 00 01 	mov  %g1, %g3
     c7c:	c4 0f bf e3 	ldub  [ %fp + -29 ], %g2
     c80:	c4 28 c0 00 	stb  %g2, [ %g3 ]
     c84:	82 00 60 01 	inc  %g1
     c88:	c2 21 00 00 	st  %g1, [ %g4 ]
     c8c:	c2 07 bf f4 	ld  [ %fp + -12 ], %g1
     c90:	82 00 60 01 	inc  %g1
     c94:	c2 27 bf f4 	st  %g1, [ %fp + -12 ]
     c98:	10 bf ff db 	b  c04 <DecodeTNSInfo+0x3f4>
     c9c:	01 00 00 00 	nop 
     ca0:	c2 07 bf cc 	ld  [ %fp + -52 ], %g1
     ca4:	82 00 60 01 	inc  %g1
     ca8:	c2 27 bf cc 	st  %g1, [ %fp + -52 ]
     cac:	c2 07 bf c8 	ld  [ %fp + -56 ], %g1
     cb0:	82 00 60 01 	inc  %g1
     cb4:	c2 27 bf c8 	st  %g1, [ %fp + -56 ]
     cb8:	c2 07 bf ec 	ld  [ %fp + -20 ], %g1
     cbc:	82 00 60 01 	inc  %g1
     cc0:	c2 27 bf ec 	st  %g1, [ %fp + -20 ]
     cc4:	10 bf ff 92 	b  b0c <DecodeTNSInfo+0x2fc>
     cc8:	01 00 00 00 	nop 
     ccc:	81 c7 e0 08 	ret 
     cd0:	81 e8 00 00 	restore 

00000cd4 <DecodeGainControlInfo>:
     cd4:	9d e3 bf 78 	save  %sp, -136, %sp
     cd8:	2f 00 00 00 	sethi  %hi(0), %l7
     cdc:	7f ff fc c9 	call  0 <raac_DecodeICSInfo-0x8>
     ce0:	ae 05 e0 00 	add  %l7, 0, %l7	! 0 <raac_DecodeICSInfo-0x8>
     ce4:	f0 27 a0 44 	st  %i0, [ %fp + 0x44 ]
     ce8:	f2 27 a0 48 	st  %i1, [ %fp + 0x48 ]
     cec:	f4 27 a0 4c 	st  %i2, [ %fp + 0x4c ]
     cf0:	e0 07 a0 4c 	ld  [ %fp + 0x4c ], %l0
     cf4:	d0 07 a0 44 	ld  [ %fp + 0x44 ], %o0
     cf8:	92 10 20 02 	mov  2, %o1
     cfc:	40 00 00 00 	call  cfc <DecodeGainControlInfo+0x28>
     d00:	01 00 00 00 	nop 
     d04:	82 10 00 08 	mov  %o0, %g1
     d08:	c2 2c 20 01 	stb  %g1, [ %l0 + 1 ]
     d0c:	03 00 00 00 	sethi  %hi(0), %g1
     d10:	82 10 60 00 	mov  %g1, %g1	! 0 <raac_DecodeICSInfo-0x8>
     d14:	c6 05 c0 01 	ld  [ %l7 + %g1 ], %g3
     d18:	c4 07 a0 48 	ld  [ %fp + 0x48 ], %g2
     d1c:	82 10 00 02 	mov  %g2, %g1
     d20:	82 00 40 01 	add  %g1, %g1, %g1
     d24:	82 00 40 02 	add  %g1, %g2, %g1
     d28:	c2 08 c0 01 	ldub  [ %g3 + %g1 ], %g1
     d2c:	82 08 60 ff 	and  %g1, 0xff, %g1
     d30:	c2 27 bf e0 	st  %g1, [ %fp + -32 ]
     d34:	03 00 00 00 	sethi  %hi(0), %g1
     d38:	82 10 60 00 	mov  %g1, %g1	! 0 <raac_DecodeICSInfo-0x8>
     d3c:	c6 05 c0 01 	ld  [ %l7 + %g1 ], %g3
     d40:	c4 07 a0 48 	ld  [ %fp + 0x48 ], %g2
     d44:	82 10 00 02 	mov  %g2, %g1
     d48:	82 00 40 01 	add  %g1, %g1, %g1
     d4c:	82 00 40 02 	add  %g1, %g2, %g1
     d50:	82 00 40 03 	add  %g1, %g3, %g1
     d54:	c2 08 60 01 	ldub  [ %g1 + 1 ], %g1
     d58:	82 08 60 ff 	and  %g1, 0xff, %g1
     d5c:	c2 27 bf e4 	st  %g1, [ %fp + -28 ]
     d60:	03 00 00 00 	sethi  %hi(0), %g1
     d64:	82 10 60 00 	mov  %g1, %g1	! 0 <raac_DecodeICSInfo-0x8>
     d68:	c6 05 c0 01 	ld  [ %l7 + %g1 ], %g3
     d6c:	c4 07 a0 48 	ld  [ %fp + 0x48 ], %g2
     d70:	82 10 00 02 	mov  %g2, %g1
     d74:	82 00 40 01 	add  %g1, %g1, %g1
     d78:	82 00 40 02 	add  %g1, %g2, %g1
     d7c:	82 00 40 03 	add  %g1, %g3, %g1
     d80:	c2 08 60 02 	ldub  [ %g1 + 2 ], %g1
     d84:	82 08 60 ff 	and  %g1, 0xff, %g1
     d88:	c2 27 bf e8 	st  %g1, [ %fp + -24 ]
     d8c:	82 10 20 01 	mov  1, %g1
     d90:	c2 27 bf f4 	st  %g1, [ %fp + -12 ]
     d94:	c2 07 a0 4c 	ld  [ %fp + 0x4c ], %g1
     d98:	c2 08 60 01 	ldub  [ %g1 + 1 ], %g1
     d9c:	84 08 60 ff 	and  %g1, 0xff, %g2
     da0:	c2 07 bf f4 	ld  [ %fp + -12 ], %g1
     da4:	80 a0 40 02 	cmp  %g1, %g2
     da8:	04 80 00 04 	ble  db8 <DecodeGainControlInfo+0xe4>
     dac:	01 00 00 00 	nop 
     db0:	10 80 00 68 	b  f50 <DecodeGainControlInfo+0x27c>
     db4:	01 00 00 00 	nop 
     db8:	c0 27 bf f0 	clr  [ %fp + -16 ]
     dbc:	c4 07 bf f0 	ld  [ %fp + -16 ], %g2
     dc0:	c2 07 bf e0 	ld  [ %fp + -32 ], %g1
     dc4:	80 a0 80 01 	cmp  %g2, %g1
     dc8:	06 80 00 04 	bl  dd8 <DecodeGainControlInfo+0x104>
     dcc:	01 00 00 00 	nop 
     dd0:	10 80 00 5b 	b  f3c <DecodeGainControlInfo+0x268>
     dd4:	01 00 00 00 	nop 
     dd8:	c4 07 a0 4c 	ld  [ %fp + 0x4c ], %g2
     ddc:	c2 07 bf f4 	ld  [ %fp + -12 ], %g1
     de0:	83 28 60 03 	sll  %g1, 3, %g1
     de4:	84 00 40 02 	add  %g1, %g2, %g2
     de8:	c2 07 bf f0 	ld  [ %fp + -16 ], %g1
     dec:	a0 00 80 01 	add  %g2, %g1, %l0
     df0:	d0 07 a0 44 	ld  [ %fp + 0x44 ], %o0
     df4:	92 10 20 03 	mov  3, %o1
     df8:	40 00 00 00 	call  df8 <DecodeGainControlInfo+0x124>
     dfc:	01 00 00 00 	nop 
     e00:	82 10 00 08 	mov  %o0, %g1
     e04:	c2 2c 20 02 	stb  %g1, [ %l0 + 2 ]
     e08:	c0 27 bf ec 	clr  [ %fp + -20 ]
     e0c:	c4 07 a0 4c 	ld  [ %fp + 0x4c ], %g2
     e10:	c2 07 bf f4 	ld  [ %fp + -12 ], %g1
     e14:	83 28 60 03 	sll  %g1, 3, %g1
     e18:	84 00 40 02 	add  %g1, %g2, %g2
     e1c:	c2 07 bf f0 	ld  [ %fp + -16 ], %g1
     e20:	82 00 80 01 	add  %g2, %g1, %g1
     e24:	c2 08 60 02 	ldub  [ %g1 + 2 ], %g1
     e28:	84 08 60 ff 	and  %g1, 0xff, %g2
     e2c:	c2 07 bf ec 	ld  [ %fp + -20 ], %g1
     e30:	80 a0 40 02 	cmp  %g1, %g2
     e34:	06 80 00 04 	bl  e44 <DecodeGainControlInfo+0x170>
     e38:	01 00 00 00 	nop 
     e3c:	10 80 00 3b 	b  f28 <DecodeGainControlInfo+0x254>
     e40:	01 00 00 00 	nop 
     e44:	c8 07 a0 4c 	ld  [ %fp + 0x4c ], %g4
     e48:	c6 07 bf f0 	ld  [ %fp + -16 ], %g3
     e4c:	c4 07 bf f4 	ld  [ %fp + -12 ], %g2
     e50:	82 10 00 02 	mov  %g2, %g1
     e54:	83 28 60 03 	sll  %g1, 3, %g1
     e58:	82 20 40 02 	sub  %g1, %g2, %g1
     e5c:	85 28 60 03 	sll  %g1, 3, %g2
     e60:	82 10 00 03 	mov  %g3, %g1
     e64:	83 28 60 03 	sll  %g1, 3, %g1
     e68:	82 20 40 03 	sub  %g1, %g3, %g1
     e6c:	82 00 80 01 	add  %g2, %g1, %g1
     e70:	84 00 40 04 	add  %g1, %g4, %g2
     e74:	c2 07 bf ec 	ld  [ %fp + -20 ], %g1
     e78:	a0 00 80 01 	add  %g2, %g1, %l0
     e7c:	d0 07 a0 44 	ld  [ %fp + 0x44 ], %o0
     e80:	92 10 20 04 	mov  4, %o1
     e84:	40 00 00 00 	call  e84 <DecodeGainControlInfo+0x1b0>
     e88:	01 00 00 00 	nop 
     e8c:	82 10 00 08 	mov  %o0, %g1
     e90:	c2 2c 20 1a 	stb  %g1, [ %l0 + 0x1a ]
     e94:	c8 07 a0 4c 	ld  [ %fp + 0x4c ], %g4
     e98:	c6 07 bf f0 	ld  [ %fp + -16 ], %g3
     e9c:	c4 07 bf f4 	ld  [ %fp + -12 ], %g2
     ea0:	82 10 00 02 	mov  %g2, %g1
     ea4:	83 28 60 03 	sll  %g1, 3, %g1
     ea8:	82 20 40 02 	sub  %g1, %g2, %g1
     eac:	85 28 60 03 	sll  %g1, 3, %g2
     eb0:	82 10 00 03 	mov  %g3, %g1
     eb4:	83 28 60 03 	sll  %g1, 3, %g1
     eb8:	82 20 40 03 	sub  %g1, %g3, %g1
     ebc:	82 00 80 01 	add  %g2, %g1, %g1
     ec0:	84 00 40 04 	add  %g1, %g4, %g2
     ec4:	c2 07 bf ec 	ld  [ %fp + -20 ], %g1
     ec8:	84 00 80 01 	add  %g2, %g1, %g2
     ecc:	c4 27 bf dc 	st  %g2, [ %fp + -36 ]
     ed0:	c2 07 bf f0 	ld  [ %fp + -16 ], %g1
     ed4:	80 a0 60 00 	cmp  %g1, 0
     ed8:	12 80 00 06 	bne  ef0 <DecodeGainControlInfo+0x21c>
     edc:	01 00 00 00 	nop 
     ee0:	c2 07 bf e4 	ld  [ %fp + -28 ], %g1
     ee4:	c2 27 bf d8 	st  %g1, [ %fp + -40 ]
     ee8:	10 80 00 04 	b  ef8 <DecodeGainControlInfo+0x224>
     eec:	01 00 00 00 	nop 
     ef0:	c4 07 bf e8 	ld  [ %fp + -24 ], %g2
     ef4:	c4 27 bf d8 	st  %g2, [ %fp + -40 ]
     ef8:	d0 07 a0 44 	ld  [ %fp + 0x44 ], %o0
     efc:	d2 07 bf d8 	ld  [ %fp + -40 ], %o1
     f00:	40 00 00 00 	call  f00 <DecodeGainControlInfo+0x22c>
     f04:	01 00 00 00 	nop 
     f08:	82 10 00 08 	mov  %o0, %g1
     f0c:	c4 07 bf dc 	ld  [ %fp + -36 ], %g2
     f10:	c2 28 a0 c2 	stb  %g1, [ %g2 + 0xc2 ]
     f14:	c2 07 bf ec 	ld  [ %fp + -20 ], %g1
     f18:	82 00 60 01 	inc  %g1
     f1c:	c2 27 bf ec 	st  %g1, [ %fp + -20 ]
     f20:	10 bf ff bb 	b  e0c <DecodeGainControlInfo+0x138>
     f24:	01 00 00 00 	nop 
     f28:	c2 07 bf f0 	ld  [ %fp + -16 ], %g1
     f2c:	82 00 60 01 	inc  %g1
     f30:	c2 27 bf f0 	st  %g1, [ %fp + -16 ]
     f34:	10 bf ff a2 	b  dbc <DecodeGainControlInfo+0xe8>
     f38:	01 00 00 00 	nop 
     f3c:	c2 07 bf f4 	ld  [ %fp + -12 ], %g1
     f40:	82 00 60 01 	inc  %g1
     f44:	c2 27 bf f4 	st  %g1, [ %fp + -12 ]
     f48:	10 bf ff 93 	b  d94 <DecodeGainControlInfo+0xc0>
     f4c:	01 00 00 00 	nop 
     f50:	81 c7 e0 08 	ret 
     f54:	81 e8 00 00 	restore 

00000f58 <DecodeICS>:
     f58:	9d e3 bf 80 	save  %sp, -128, %sp
     f5c:	f0 27 a0 44 	st  %i0, [ %fp + 0x44 ]
     f60:	f2 27 a0 48 	st  %i1, [ %fp + 0x48 ]
     f64:	f4 27 a0 4c 	st  %i2, [ %fp + 0x4c ]
     f68:	c2 07 a0 4c 	ld  [ %fp + 0x4c ], %g1
     f6c:	80 a0 60 01 	cmp  %g1, 1
     f70:	12 80 00 0c 	bne  fa0 <DecodeICS+0x48>
     f74:	01 00 00 00 	nop 
     f78:	c2 07 a0 44 	ld  [ %fp + 0x44 ], %g1
     f7c:	c2 00 68 f0 	ld  [ %g1 + 0x8f0 ], %g1
     f80:	80 a0 60 01 	cmp  %g1, 1
     f84:	12 80 00 07 	bne  fa0 <DecodeICS+0x48>
     f88:	01 00 00 00 	nop 
     f8c:	c2 07 a0 44 	ld  [ %fp + 0x44 ], %g1
     f90:	82 00 68 7c 	add  %g1, 0x87c, %g1
     f94:	c2 27 bf e0 	st  %g1, [ %fp + -32 ]
     f98:	10 80 00 0f 	b  fd4 <DecodeICS+0x7c>
     f9c:	01 00 00 00 	nop 
     fa0:	c4 07 a0 4c 	ld  [ %fp + 0x4c ], %g2
     fa4:	82 10 00 02 	mov  %g2, %g1
     fa8:	83 28 60 03 	sll  %g1, 3, %g1
     fac:	82 20 40 02 	sub  %g1, %g2, %g1
     fb0:	83 28 60 02 	sll  %g1, 2, %g1
     fb4:	82 00 40 02 	add  %g1, %g2, %g1
     fb8:	84 00 40 01 	add  %g1, %g1, %g2
     fbc:	c2 07 a0 44 	ld  [ %fp + 0x44 ], %g1
     fc0:	84 00 80 01 	add  %g2, %g1, %g2
     fc4:	c4 27 bf e0 	st  %g2, [ %fp + -32 ]
     fc8:	c2 07 bf e0 	ld  [ %fp + -32 ], %g1
     fcc:	82 00 68 7c 	add  %g1, 0x87c, %g1
     fd0:	c2 27 bf e0 	st  %g1, [ %fp + -32 ]
     fd4:	c2 07 bf e0 	ld  [ %fp + -32 ], %g1
     fd8:	c2 27 bf f0 	st  %g1, [ %fp + -16 ]
     fdc:	d0 07 a0 48 	ld  [ %fp + 0x48 ], %o0
     fe0:	92 10 20 08 	mov  8, %o1
     fe4:	40 00 00 00 	call  fe4 <DecodeICS+0x8c>
     fe8:	01 00 00 00 	nop 
     fec:	d0 27 bf f4 	st  %o0, [ %fp + -12 ]
     ff0:	c2 07 a0 44 	ld  [ %fp + 0x44 ], %g1
     ff4:	c2 00 68 f0 	ld  [ %g1 + 0x8f0 ], %g1
     ff8:	80 a0 60 00 	cmp  %g1, 0
     ffc:	12 80 00 08 	bne  101c <DecodeICS+0xc4>
    1000:	01 00 00 00 	nop 
    1004:	c2 07 a0 44 	ld  [ %fp + 0x44 ], %g1
    1008:	d0 07 a0 48 	ld  [ %fp + 0x48 ], %o0
    100c:	d2 07 bf f0 	ld  [ %fp + -16 ], %o1
    1010:	d4 00 68 78 	ld  [ %g1 + 0x878 ], %o2
    1014:	40 00 00 00 	call  1014 <DecodeICS+0xbc>
    1018:	01 00 00 00 	nop 
    101c:	c2 07 bf f0 	ld  [ %fp + -16 ], %g1
    1020:	c2 08 60 01 	ldub  [ %g1 + 1 ], %g1
    1024:	86 08 60 ff 	and  %g1, 0xff, %g3
    1028:	c2 07 bf f0 	ld  [ %fp + -16 ], %g1
    102c:	c2 08 60 31 	ldub  [ %g1 + 0x31 ], %g1
    1030:	88 08 60 ff 	and  %g1, 0xff, %g4
    1034:	c2 07 bf f0 	ld  [ %fp + -16 ], %g1
    1038:	c2 08 60 03 	ldub  [ %g1 + 3 ], %g1
    103c:	9a 08 60 ff 	and  %g1, 0xff, %o5
    1040:	c4 07 a0 4c 	ld  [ %fp + 0x4c ], %g2
    1044:	82 10 00 02 	mov  %g2, %g1
    1048:	83 28 60 04 	sll  %g1, 4, %g1
    104c:	82 20 40 02 	sub  %g1, %g2, %g1
    1050:	85 28 60 03 	sll  %g1, 3, %g2
    1054:	c2 07 a0 44 	ld  [ %fp + 0x44 ], %g1
    1058:	82 00 80 01 	add  %g2, %g1, %g1
    105c:	82 00 6a d4 	add  %g1, 0xad4, %g1
    1060:	d0 07 a0 48 	ld  [ %fp + 0x48 ], %o0
    1064:	92 10 00 03 	mov  %g3, %o1
    1068:	94 10 00 04 	mov  %g4, %o2
    106c:	96 10 00 0d 	mov  %o5, %o3
    1070:	98 10 00 01 	mov  %g1, %o4
    1074:	7f ff fc a7 	call  310 <DecodeSectionData>
    1078:	01 00 00 00 	nop 
    107c:	c2 07 bf f0 	ld  [ %fp + -16 ], %g1
    1080:	c2 08 60 31 	ldub  [ %g1 + 0x31 ], %g1
    1084:	9a 08 60 ff 	and  %g1, 0xff, %o5
    1088:	c2 07 bf f0 	ld  [ %fp + -16 ], %g1
    108c:	c2 08 60 03 	ldub  [ %g1 + 3 ], %g1
    1090:	86 08 60 ff 	and  %g1, 0xff, %g3
    1094:	c4 07 a0 4c 	ld  [ %fp + 0x4c ], %g2
    1098:	82 10 00 02 	mov  %g2, %g1
    109c:	83 28 60 04 	sll  %g1, 4, %g1
    10a0:	82 20 40 02 	sub  %g1, %g2, %g1
    10a4:	85 28 60 03 	sll  %g1, 3, %g2
    10a8:	c2 07 a0 44 	ld  [ %fp + 0x44 ], %g1
    10ac:	82 00 80 01 	add  %g2, %g1, %g1
    10b0:	88 00 6a d4 	add  %g1, 0xad4, %g4
    10b4:	c4 07 a0 4c 	ld  [ %fp + 0x4c ], %g2
    10b8:	82 10 00 02 	mov  %g2, %g1
    10bc:	83 28 60 04 	sll  %g1, 4, %g1
    10c0:	82 20 40 02 	sub  %g1, %g2, %g1
    10c4:	85 28 60 04 	sll  %g1, 4, %g2
    10c8:	c2 07 a0 44 	ld  [ %fp + 0x44 ], %g1
    10cc:	82 00 80 01 	add  %g2, %g1, %g1
    10d0:	82 00 68 f4 	add  %g1, 0x8f4, %g1
    10d4:	d0 07 a0 48 	ld  [ %fp + 0x48 ], %o0
    10d8:	92 10 00 0d 	mov  %o5, %o1
    10dc:	94 10 00 03 	mov  %g3, %o2
    10e0:	d6 07 bf f4 	ld  [ %fp + -12 ], %o3
    10e4:	98 10 00 04 	mov  %g4, %o4
    10e8:	9a 10 00 01 	mov  %g1, %o5
    10ec:	7f ff fd 0c 	call  51c <DecodeScaleFactors>
    10f0:	01 00 00 00 	nop 
    10f4:	c4 07 a0 4c 	ld  [ %fp + 0x4c ], %g2
    10f8:	82 10 00 02 	mov  %g2, %g1
    10fc:	82 00 40 01 	add  %g1, %g1, %g1
    1100:	82 00 40 02 	add  %g1, %g2, %g1
    1104:	83 28 60 02 	sll  %g1, 2, %g1
    1108:	82 20 40 02 	sub  %g1, %g2, %g1
    110c:	c4 07 a0 44 	ld  [ %fp + 0x44 ], %g2
    1110:	82 00 40 02 	add  %g1, %g2, %g1
    1114:	82 00 6b ec 	add  %g1, 0xbec, %g1
    1118:	c2 27 bf ec 	st  %g1, [ %fp + -20 ]
    111c:	e0 07 bf ec 	ld  [ %fp + -20 ], %l0
    1120:	d0 07 a0 48 	ld  [ %fp + 0x48 ], %o0
    1124:	92 10 20 01 	mov  1, %o1
    1128:	40 00 00 00 	call  1128 <DecodeICS+0x1d0>
    112c:	01 00 00 00 	nop 
    1130:	82 10 00 08 	mov  %o0, %g1
    1134:	c2 2c 00 00 	stb  %g1, [ %l0 ]
    1138:	c2 07 bf ec 	ld  [ %fp + -20 ], %g1
    113c:	c2 08 40 00 	ldub  [ %g1 ], %g1
    1140:	82 08 60 ff 	and  %g1, 0xff, %g1
    1144:	80 a0 60 00 	cmp  %g1, 0
    1148:	02 80 00 06 	be  1160 <DecodeICS+0x208>
    114c:	01 00 00 00 	nop 
    1150:	d0 07 a0 48 	ld  [ %fp + 0x48 ], %o0
    1154:	d2 07 bf ec 	ld  [ %fp + -20 ], %o1
    1158:	7f ff fd 79 	call  73c <DecodePulseInfo>
    115c:	01 00 00 00 	nop 
    1160:	c4 07 a0 4c 	ld  [ %fp + 0x4c ], %g2
    1164:	82 10 00 02 	mov  %g2, %g1
    1168:	82 00 40 01 	add  %g1, %g1, %g1
    116c:	82 00 40 02 	add  %g1, %g2, %g1
    1170:	83 28 60 03 	sll  %g1, 3, %g1
    1174:	82 00 40 02 	add  %g1, %g2, %g1
    1178:	83 28 60 02 	sll  %g1, 2, %g1
    117c:	82 00 40 02 	add  %g1, %g2, %g1
    1180:	c4 07 a0 44 	ld  [ %fp + 0x44 ], %g2
    1184:	82 00 40 02 	add  %g1, %g2, %g1
    1188:	82 00 6c 02 	add  %g1, 0xc02, %g1
    118c:	c2 27 bf e8 	st  %g1, [ %fp + -24 ]
    1190:	e0 07 bf e8 	ld  [ %fp + -24 ], %l0
    1194:	d0 07 a0 48 	ld  [ %fp + 0x48 ], %o0
    1198:	92 10 20 01 	mov  1, %o1
    119c:	40 00 00 00 	call  119c <DecodeICS+0x244>
    11a0:	01 00 00 00 	nop 
    11a4:	82 10 00 08 	mov  %o0, %g1
    11a8:	c2 2c 00 00 	stb  %g1, [ %l0 ]
    11ac:	c2 07 bf e8 	ld  [ %fp + -24 ], %g1
    11b0:	c2 08 40 00 	ldub  [ %g1 ], %g1
    11b4:	82 08 60 ff 	and  %g1, 0xff, %g1
    11b8:	80 a0 60 00 	cmp  %g1, 0
    11bc:	02 80 00 0d 	be  11f0 <DecodeICS+0x298>
    11c0:	01 00 00 00 	nop 
    11c4:	c2 07 bf f0 	ld  [ %fp + -16 ], %g1
    11c8:	c2 08 60 01 	ldub  [ %g1 + 1 ], %g1
    11cc:	84 08 60 ff 	and  %g1, 0xff, %g2
    11d0:	c2 07 bf e8 	ld  [ %fp + -24 ], %g1
    11d4:	82 00 60 29 	add  %g1, 0x29, %g1
    11d8:	d0 07 a0 48 	ld  [ %fp + 0x48 ], %o0
    11dc:	92 10 00 02 	mov  %g2, %o1
    11e0:	d4 07 bf e8 	ld  [ %fp + -24 ], %o2
    11e4:	96 10 00 01 	mov  %g1, %o3
    11e8:	7f ff fd 8a 	call  810 <DecodeTNSInfo>
    11ec:	01 00 00 00 	nop 
    11f0:	c6 07 a0 4c 	ld  [ %fp + 0x4c ], %g3
    11f4:	82 10 00 03 	mov  %g3, %g1
    11f8:	84 00 40 01 	add  %g1, %g1, %g2
    11fc:	84 00 80 03 	add  %g2, %g3, %g2
    1200:	83 28 a0 04 	sll  %g2, 4, %g1
    1204:	82 20 40 02 	sub  %g1, %g2, %g1
    1208:	83 28 60 02 	sll  %g1, 2, %g1
    120c:	82 00 40 03 	add  %g1, %g3, %g1
    1210:	84 00 40 01 	add  %g1, %g1, %g2
    1214:	c2 07 a0 44 	ld  [ %fp + 0x44 ], %g1
    1218:	82 00 80 01 	add  %g2, %g1, %g1
    121c:	82 00 6d 6c 	add  %g1, 0xd6c, %g1
    1220:	c2 27 bf e4 	st  %g1, [ %fp + -28 ]
    1224:	e0 07 bf e4 	ld  [ %fp + -28 ], %l0
    1228:	d0 07 a0 48 	ld  [ %fp + 0x48 ], %o0
    122c:	92 10 20 01 	mov  1, %o1
    1230:	40 00 00 00 	call  1230 <DecodeICS+0x2d8>
    1234:	01 00 00 00 	nop 
    1238:	82 10 00 08 	mov  %o0, %g1
    123c:	c2 2c 00 00 	stb  %g1, [ %l0 ]
    1240:	c2 07 bf e4 	ld  [ %fp + -28 ], %g1
    1244:	c2 08 40 00 	ldub  [ %g1 ], %g1
    1248:	82 08 60 ff 	and  %g1, 0xff, %g1
    124c:	80 a0 60 00 	cmp  %g1, 0
    1250:	02 80 00 0a 	be  1278 <DecodeICS+0x320>
    1254:	01 00 00 00 	nop 
    1258:	c2 07 bf f0 	ld  [ %fp + -16 ], %g1
    125c:	c2 08 60 01 	ldub  [ %g1 + 1 ], %g1
    1260:	82 08 60 ff 	and  %g1, 0xff, %g1
    1264:	d0 07 a0 48 	ld  [ %fp + 0x48 ], %o0
    1268:	92 10 00 01 	mov  %g1, %o1
    126c:	d4 07 bf e4 	ld  [ %fp + -28 ], %o2
    1270:	7f ff fe 99 	call  cd4 <DecodeGainControlInfo>
    1274:	01 00 00 00 	nop 
    1278:	01 00 00 00 	nop 
    127c:	81 c7 e0 08 	ret 
    1280:	81 e8 00 00 	restore 

00001284 <raac_DecodeNoiselessData>:
    1284:	9d e3 bf 70 	save  %sp, -144, %sp
    1288:	f0 27 a0 44 	st  %i0, [ %fp + 0x44 ]
    128c:	f2 27 a0 48 	st  %i1, [ %fp + 0x48 ]
    1290:	f4 27 a0 4c 	st  %i2, [ %fp + 0x4c ]
    1294:	f6 27 a0 50 	st  %i3, [ %fp + 0x50 ]
    1298:	f8 27 a0 54 	st  %i4, [ %fp + 0x54 ]
    129c:	c2 07 a0 44 	ld  [ %fp + 0x44 ], %g1
    12a0:	80 a0 60 00 	cmp  %g1, 0
    12a4:	02 80 00 07 	be  12c0 <raac_DecodeNoiselessData+0x3c>
    12a8:	01 00 00 00 	nop 
    12ac:	c2 07 a0 44 	ld  [ %fp + 0x44 ], %g1
    12b0:	c2 00 40 00 	ld  [ %g1 ], %g1
    12b4:	80 a0 60 00 	cmp  %g1, 0
    12b8:	12 80 00 06 	bne  12d0 <raac_DecodeNoiselessData+0x4c>
    12bc:	01 00 00 00 	nop 
    12c0:	82 10 3f fe 	mov  -2, %g1	! fffffffe <raac_DecodeNoiselessData+0xffffed7a>
    12c4:	c2 27 bf d4 	st  %g1, [ %fp + -44 ]
    12c8:	10 80 00 85 	b  14dc <raac_DecodeNoiselessData+0x258>
    12cc:	01 00 00 00 	nop 
    12d0:	c2 07 a0 44 	ld  [ %fp + 0x44 ], %g1
    12d4:	c2 00 40 00 	ld  [ %g1 ], %g1
    12d8:	c2 27 bf dc 	st  %g1, [ %fp + -36 ]
    12dc:	c2 07 a0 54 	ld  [ %fp + 0x54 ], %g1
    12e0:	80 a0 60 01 	cmp  %g1, 1
    12e4:	12 80 00 0c 	bne  1314 <raac_DecodeNoiselessData+0x90>
    12e8:	01 00 00 00 	nop 
    12ec:	c2 07 bf dc 	ld  [ %fp + -36 ], %g1
    12f0:	c2 00 68 f0 	ld  [ %g1 + 0x8f0 ], %g1
    12f4:	80 a0 60 01 	cmp  %g1, 1
    12f8:	12 80 00 07 	bne  1314 <raac_DecodeNoiselessData+0x90>
    12fc:	01 00 00 00 	nop 
    1300:	c2 07 bf dc 	ld  [ %fp + -36 ], %g1
    1304:	82 00 68 7c 	add  %g1, 0x87c, %g1
    1308:	c2 27 bf d0 	st  %g1, [ %fp + -48 ]
    130c:	10 80 00 0f 	b  1348 <raac_DecodeNoiselessData+0xc4>
    1310:	01 00 00 00 	nop 
    1314:	c4 07 a0 54 	ld  [ %fp + 0x54 ], %g2
    1318:	82 10 00 02 	mov  %g2, %g1
    131c:	83 28 60 03 	sll  %g1, 3, %g1
    1320:	82 20 40 02 	sub  %g1, %g2, %g1
    1324:	83 28 60 02 	sll  %g1, 2, %g1
    1328:	82 00 40 02 	add  %g1, %g2, %g1
    132c:	84 00 40 01 	add  %g1, %g1, %g2
    1330:	c2 07 bf dc 	ld  [ %fp + -36 ], %g1
    1334:	84 00 80 01 	add  %g2, %g1, %g2
    1338:	c4 27 bf d0 	st  %g2, [ %fp + -48 ]
    133c:	c2 07 bf d0 	ld  [ %fp + -48 ], %g1
    1340:	82 00 68 7c 	add  %g1, 0x87c, %g1
    1344:	c2 27 bf d0 	st  %g1, [ %fp + -48 ]
    1348:	c2 07 bf d0 	ld  [ %fp + -48 ], %g1
    134c:	c2 27 bf d8 	st  %g1, [ %fp + -40 ]
    1350:	86 07 bf e0 	add  %fp, -32, %g3
    1354:	c2 07 a0 50 	ld  [ %fp + 0x50 ], %g1
    1358:	c2 00 40 00 	ld  [ %g1 ], %g1
    135c:	82 00 60 07 	add  %g1, 7, %g1
    1360:	83 38 60 03 	sra  %g1, 3, %g1
    1364:	c4 07 a0 48 	ld  [ %fp + 0x48 ], %g2
    1368:	90 10 00 03 	mov  %g3, %o0
    136c:	92 10 00 01 	mov  %g1, %o1
    1370:	d4 00 80 00 	ld  [ %g2 ], %o2
    1374:	40 00 00 00 	call  1374 <raac_DecodeNoiselessData+0xf0>
    1378:	01 00 00 00 	nop 
    137c:	82 07 bf e0 	add  %fp, -32, %g1
    1380:	c4 07 a0 4c 	ld  [ %fp + 0x4c ], %g2
    1384:	90 10 00 01 	mov  %g1, %o0
    1388:	d2 00 80 00 	ld  [ %g2 ], %o1
    138c:	40 00 00 00 	call  138c <raac_DecodeNoiselessData+0x108>
    1390:	01 00 00 00 	nop 
    1394:	82 07 bf e0 	add  %fp, -32, %g1
    1398:	d0 07 bf dc 	ld  [ %fp + -36 ], %o0
    139c:	92 10 00 01 	mov  %g1, %o1
    13a0:	d4 07 a0 54 	ld  [ %fp + 0x54 ], %o2
    13a4:	7f ff fe ed 	call  f58 <DecodeICS>
    13a8:	01 00 00 00 	nop 
    13ac:	c2 07 bf d8 	ld  [ %fp + -40 ], %g1
    13b0:	c2 08 60 01 	ldub  [ %g1 + 1 ], %g1
    13b4:	82 08 60 ff 	and  %g1, 0xff, %g1
    13b8:	80 a0 60 02 	cmp  %g1, 2
    13bc:	12 80 00 0a 	bne  13e4 <raac_DecodeNoiselessData+0x160>
    13c0:	01 00 00 00 	nop 
    13c4:	82 07 bf e0 	add  %fp, -32, %g1
    13c8:	d0 07 bf dc 	ld  [ %fp + -36 ], %o0
    13cc:	92 10 00 01 	mov  %g1, %o1
    13d0:	d4 07 a0 54 	ld  [ %fp + 0x54 ], %o2
    13d4:	40 00 00 00 	call  13d4 <raac_DecodeNoiselessData+0x150>
    13d8:	01 00 00 00 	nop 
    13dc:	10 80 00 08 	b  13fc <raac_DecodeNoiselessData+0x178>
    13e0:	01 00 00 00 	nop 
    13e4:	82 07 bf e0 	add  %fp, -32, %g1
    13e8:	d0 07 bf dc 	ld  [ %fp + -36 ], %o0
    13ec:	92 10 00 01 	mov  %g1, %o1
    13f0:	d4 07 a0 54 	ld  [ %fp + 0x54 ], %o2
    13f4:	40 00 00 00 	call  13f4 <raac_DecodeNoiselessData+0x170>
    13f8:	01 00 00 00 	nop 
    13fc:	82 07 bf e0 	add  %fp, -32, %g1
    1400:	c4 07 a0 48 	ld  [ %fp + 0x48 ], %g2
    1404:	c6 07 a0 4c 	ld  [ %fp + 0x4c ], %g3
    1408:	90 10 00 01 	mov  %g1, %o0
    140c:	d2 00 80 00 	ld  [ %g2 ], %o1
    1410:	d4 00 c0 00 	ld  [ %g3 ], %o2
    1414:	40 00 00 00 	call  1414 <raac_DecodeNoiselessData+0x190>
    1418:	01 00 00 00 	nop 
    141c:	82 10 00 08 	mov  %o0, %g1
    1420:	c2 27 bf f4 	st  %g1, [ %fp + -12 ]
    1424:	c8 07 a0 48 	ld  [ %fp + 0x48 ], %g4
    1428:	c6 07 a0 48 	ld  [ %fp + 0x48 ], %g3
    142c:	c2 07 a0 4c 	ld  [ %fp + 0x4c ], %g1
    1430:	c4 07 bf f4 	ld  [ %fp + -12 ], %g2
    1434:	c2 00 40 00 	ld  [ %g1 ], %g1
    1438:	82 00 80 01 	add  %g2, %g1, %g1
    143c:	85 38 60 03 	sra  %g1, 3, %g2
    1440:	c2 00 c0 00 	ld  [ %g3 ], %g1
    1444:	82 00 40 02 	add  %g1, %g2, %g1
    1448:	c2 21 00 00 	st  %g1, [ %g4 ]
    144c:	c6 07 a0 4c 	ld  [ %fp + 0x4c ], %g3
    1450:	c2 07 a0 4c 	ld  [ %fp + 0x4c ], %g1
    1454:	c4 07 bf f4 	ld  [ %fp + -12 ], %g2
    1458:	c2 00 40 00 	ld  [ %g1 ], %g1
    145c:	82 00 80 01 	add  %g2, %g1, %g1
    1460:	82 08 60 07 	and  %g1, 7, %g1
    1464:	c2 20 c0 00 	st  %g1, [ %g3 ]
    1468:	c6 07 a0 50 	ld  [ %fp + 0x50 ], %g3
    146c:	c2 07 a0 50 	ld  [ %fp + 0x50 ], %g1
    1470:	c4 00 40 00 	ld  [ %g1 ], %g2
    1474:	c2 07 bf f4 	ld  [ %fp + -12 ], %g1
    1478:	82 20 80 01 	sub  %g2, %g1, %g1
    147c:	c2 20 c0 00 	st  %g1, [ %g3 ]
    1480:	c4 07 a0 44 	ld  [ %fp + 0x44 ], %g2
    1484:	c2 07 a0 54 	ld  [ %fp + 0x54 ], %g1
    1488:	83 28 60 02 	sll  %g1, 2, %g1
    148c:	82 00 40 02 	add  %g1, %g2, %g1
    1490:	c0 20 60 30 	clr  [ %g1 + 0x30 ]
    1494:	c8 07 a0 44 	ld  [ %fp + 0x44 ], %g4
    1498:	da 07 a0 44 	ld  [ %fp + 0x44 ], %o5
    149c:	c6 07 bf dc 	ld  [ %fp + -36 ], %g3
    14a0:	c4 07 a0 54 	ld  [ %fp + 0x54 ], %g2
    14a4:	82 10 00 02 	mov  %g2, %g1
    14a8:	82 00 40 01 	add  %g1, %g1, %g1
    14ac:	82 00 40 02 	add  %g1, %g2, %g1
    14b0:	83 28 60 03 	sll  %g1, 3, %g1
    14b4:	82 00 40 02 	add  %g1, %g2, %g1
    14b8:	83 28 60 02 	sll  %g1, 2, %g1
    14bc:	82 00 40 02 	add  %g1, %g2, %g1
    14c0:	82 00 40 03 	add  %g1, %g3, %g1
    14c4:	c2 08 6c 02 	ldub  [ %g1 + 0xc02 ], %g1
    14c8:	84 08 60 ff 	and  %g1, 0xff, %g2
    14cc:	c2 03 60 54 	ld  [ %o5 + 0x54 ], %g1
    14d0:	82 10 40 02 	or  %g1, %g2, %g1
    14d4:	c2 21 20 54 	st  %g1, [ %g4 + 0x54 ]
    14d8:	c0 27 bf d4 	clr  [ %fp + -44 ]
    14dc:	f0 07 bf d4 	ld  [ %fp + -44 ], %i0
    14e0:	81 c7 e0 08 	ret 
    14e4:	81 e8 00 00 	restore 
