
stproc.o:     file format elf32-sparc
stproc.o

Disassembly of section .text:

00000000 <StereoProcessGroup-0x8>:
   0:	81 c3 e0 08 	retl 
   4:	ae 03 c0 17 	add  %o7, %l7, %l7

00000008 <StereoProcessGroup>:
   8:	9d e3 bf 68 	save  %sp, -152, %sp
   c:	2f 00 00 00 	sethi  %hi(0), %l7
  10:	7f ff ff fc 	call  0 <StereoProcessGroup-0x8>
  14:	ae 05 e0 00 	add  %l7, 0, %l7	! 0 <StereoProcessGroup-0x8>
  18:	f0 27 a0 44 	st  %i0, [ %fp + 0x44 ]
  1c:	f2 27 a0 48 	st  %i1, [ %fp + 0x48 ]
  20:	f4 27 a0 4c 	st  %i2, [ %fp + 0x4c ]
  24:	f6 27 a0 50 	st  %i3, [ %fp + 0x50 ]
  28:	f8 27 a0 54 	st  %i4, [ %fp + 0x54 ]
  2c:	fa 27 a0 58 	st  %i5, [ %fp + 0x58 ]
  30:	88 07 a0 54 	add  %fp, 0x54, %g4
  34:	c4 01 00 00 	ld  [ %g4 ], %g2
  38:	82 10 00 02 	mov  %g2, %g1
  3c:	c2 08 40 00 	ldub  [ %g1 ], %g1
  40:	86 08 60 ff 	and  %g1, 0xff, %g3
  44:	c2 07 a0 58 	ld  [ %fp + 0x58 ], %g1
  48:	83 38 c0 01 	sra  %g3, %g1, %g1
  4c:	c2 2f bf cf 	stb  %g1, [ %fp + -49 ]
  50:	84 00 a0 01 	inc  %g2
  54:	c4 21 00 00 	st  %g2, [ %g4 ]
  58:	c0 27 bf d4 	clr  [ %fp + -44 ]
  5c:	c0 27 bf d0 	clr  [ %fp + -48 ]
  60:	c0 27 bf f4 	clr  [ %fp + -12 ]
  64:	c4 07 bf f4 	ld  [ %fp + -12 ], %g2
  68:	c2 07 a0 5c 	ld  [ %fp + 0x5c ], %g1
  6c:	80 a0 80 01 	cmp  %g2, %g1
  70:	06 80 00 04 	bl  80 <StereoProcessGroup+0x78>
  74:	01 00 00 00 	nop 
  78:	10 80 01 5b 	b  5e4 <StereoProcessGroup+0x5dc>
  7c:	01 00 00 00 	nop 
  80:	c2 07 bf f4 	ld  [ %fp + -12 ], %g1
  84:	84 00 40 01 	add  %g1, %g1, %g2
  88:	c2 07 a0 4c 	ld  [ %fp + 0x4c ], %g1
  8c:	82 00 80 01 	add  %g2, %g1, %g1
  90:	c2 10 60 02 	lduh  [ %g1 + 2 ], %g1
  94:	83 28 60 10 	sll  %g1, 0x10, %g1
  98:	87 38 60 10 	sra  %g1, 0x10, %g3
  9c:	c2 07 bf f4 	ld  [ %fp + -12 ], %g1
  a0:	84 00 40 01 	add  %g1, %g1, %g2
  a4:	c2 07 a0 4c 	ld  [ %fp + 0x4c ], %g1
  a8:	82 00 80 01 	add  %g2, %g1, %g1
  ac:	c2 10 40 00 	lduh  [ %g1 ], %g1
  b0:	83 28 60 10 	sll  %g1, 0x10, %g1
  b4:	83 38 60 10 	sra  %g1, 0x10, %g1
  b8:	82 20 c0 01 	sub  %g3, %g1, %g1
  bc:	c2 27 bf f0 	st  %g1, [ %fp + -16 ]
  c0:	c4 07 a0 60 	ld  [ %fp + 0x60 ], %g2
  c4:	c2 07 bf f4 	ld  [ %fp + -12 ], %g1
  c8:	82 00 80 01 	add  %g2, %g1, %g1
  cc:	c2 08 40 00 	ldub  [ %g1 ], %g1
  d0:	82 08 60 ff 	and  %g1, 0xff, %g1
  d4:	c2 27 bf ec 	st  %g1, [ %fp + -20 ]
  d8:	c2 07 bf ec 	ld  [ %fp + -20 ], %g1
  dc:	80 a0 60 0e 	cmp  %g1, 0xe
  e0:	02 80 00 08 	be  100 <StereoProcessGroup+0xf8>
  e4:	01 00 00 00 	nop 
  e8:	c2 07 bf ec 	ld  [ %fp + -20 ], %g1
  ec:	80 a0 60 0f 	cmp  %g1, 0xf
  f0:	02 80 00 04 	be  100 <StereoProcessGroup+0xf8>
  f4:	01 00 00 00 	nop 
  f8:	10 80 00 9a 	b  360 <StereoProcessGroup+0x358>
  fc:	01 00 00 00 	nop 
 100:	c2 07 a0 50 	ld  [ %fp + 0x50 ], %g1
 104:	80 a0 60 01 	cmp  %g1, 1
 108:	12 80 00 0b 	bne  134 <StereoProcessGroup+0x12c>
 10c:	01 00 00 00 	nop 
 110:	c2 0f bf cf 	ldub  [ %fp + -49 ], %g1
 114:	82 08 60 ff 	and  %g1, 0xff, %g1
 118:	82 08 60 01 	and  %g1, 1, %g1
 11c:	80 a0 60 00 	cmp  %g1, 0
 120:	02 80 00 05 	be  134 <StereoProcessGroup+0x12c>
 124:	01 00 00 00 	nop 
 128:	c2 07 bf ec 	ld  [ %fp + -20 ], %g1
 12c:	82 18 60 01 	xor  %g1, 1, %g1
 130:	c2 27 bf ec 	st  %g1, [ %fp + -20 ]
 134:	c2 07 bf f4 	ld  [ %fp + -12 ], %g1
 138:	84 00 40 01 	add  %g1, %g1, %g2
 13c:	c2 07 a0 64 	ld  [ %fp + 0x64 ], %g1
 140:	82 00 80 01 	add  %g2, %g1, %g1
 144:	c2 10 40 00 	lduh  [ %g1 ], %g1
 148:	83 28 60 10 	sll  %g1, 0x10, %g1
 14c:	83 38 60 10 	sra  %g1, 0x10, %g1
 150:	82 20 00 01 	neg  %g1
 154:	c2 27 bf e8 	st  %g1, [ %fp + -24 ]
 158:	c2 07 bf ec 	ld  [ %fp + -20 ], %g1
 15c:	82 08 60 01 	and  %g1, 1, %g1
 160:	c2 27 bf ec 	st  %g1, [ %fp + -20 ]
 164:	03 00 00 00 	sethi  %hi(0), %g1
 168:	82 10 60 00 	mov  %g1, %g1	! 0 <StereoProcessGroup-0x8>
 16c:	c8 05 c0 01 	ld  [ %l7 + %g1 ], %g4
 170:	c4 07 bf ec 	ld  [ %fp + -20 ], %g2
 174:	c2 07 bf e8 	ld  [ %fp + -24 ], %g1
 178:	86 08 60 03 	and  %g1, 3, %g3
 17c:	82 10 00 02 	mov  %g2, %g1
 180:	83 28 60 02 	sll  %g1, 2, %g1
 184:	82 00 40 03 	add  %g1, %g3, %g1
 188:	83 28 60 02 	sll  %g1, 2, %g1
 18c:	c2 01 00 01 	ld  [ %g4 + %g1 ], %g1
 190:	c2 27 bf dc 	st  %g1, [ %fp + -36 ]
 194:	c2 07 bf e8 	ld  [ %fp + -24 ], %g1
 198:	83 38 60 02 	sra  %g1, 2, %g1
 19c:	82 00 60 02 	add  %g1, 2, %g1
 1a0:	c2 27 bf d8 	st  %g1, [ %fp + -40 ]
 1a4:	c2 07 bf d8 	ld  [ %fp + -40 ], %g1
 1a8:	80 a0 60 00 	cmp  %g1, 0
 1ac:	04 80 00 41 	ble  2b0 <StereoProcessGroup+0x2a8>
 1b0:	01 00 00 00 	nop 
 1b4:	c2 07 bf d8 	ld  [ %fp + -40 ], %g1
 1b8:	80 a0 60 1e 	cmp  %g1, 0x1e
 1bc:	04 80 00 04 	ble  1cc <StereoProcessGroup+0x1c4>
 1c0:	01 00 00 00 	nop 
 1c4:	82 10 20 1e 	mov  0x1e, %g1	! 1e <StereoProcessGroup+0x16>
 1c8:	c2 27 bf d8 	st  %g1, [ %fp + -40 ]
 1cc:	01 00 00 00 	nop 
 1d0:	c2 07 a0 44 	ld  [ %fp + 0x44 ], %g1
 1d4:	c4 00 40 00 	ld  [ %g1 ], %g2
 1d8:	82 00 60 04 	add  %g1, 4, %g1
 1dc:	c2 27 a0 44 	st  %g1, [ %fp + 0x44 ]
 1e0:	90 10 00 02 	mov  %g2, %o0
 1e4:	d2 07 bf dc 	ld  [ %fp + -36 ], %o1
 1e8:	40 00 01 f2 	call  9b0 <MULSHIFT32>
 1ec:	01 00 00 00 	nop 
 1f0:	82 10 00 08 	mov  %o0, %g1
 1f4:	c2 27 bf e0 	st  %g1, [ %fp + -32 ]
 1f8:	c2 07 bf e0 	ld  [ %fp + -32 ], %g1
 1fc:	87 38 60 1f 	sra  %g1, 0x1f, %g3
 200:	84 10 20 1f 	mov  0x1f, %g2
 204:	c2 07 bf d8 	ld  [ %fp + -40 ], %g1
 208:	84 20 80 01 	sub  %g2, %g1, %g2
 20c:	c2 07 bf e0 	ld  [ %fp + -32 ], %g1
 210:	83 38 40 02 	sra  %g1, %g2, %g1
 214:	80 a0 c0 01 	cmp  %g3, %g1
 218:	02 80 00 0c 	be  248 <StereoProcessGroup+0x240>
 21c:	01 00 00 00 	nop 
 220:	c2 07 bf e0 	ld  [ %fp + -32 ], %g1
 224:	87 38 60 1f 	sra  %g1, 0x1f, %g3
 228:	84 10 20 1f 	mov  0x1f, %g2
 22c:	c2 07 bf d8 	ld  [ %fp + -40 ], %g1
 230:	84 20 80 01 	sub  %g2, %g1, %g2
 234:	82 10 20 01 	mov  1, %g1
 238:	83 28 40 02 	sll  %g1, %g2, %g1
 23c:	82 00 7f ff 	add  %g1, -1, %g1
 240:	82 18 c0 01 	xor  %g3, %g1, %g1
 244:	c2 27 bf e0 	st  %g1, [ %fp + -32 ]
 248:	c4 07 bf e0 	ld  [ %fp + -32 ], %g2
 24c:	c2 07 bf d8 	ld  [ %fp + -40 ], %g1
 250:	83 28 80 01 	sll  %g2, %g1, %g1
 254:	c2 27 bf e0 	st  %g1, [ %fp + -32 ]
 258:	d0 07 bf e0 	ld  [ %fp + -32 ], %o0
 25c:	40 00 01 ef 	call  a18 <FASTABS>
 260:	01 00 00 00 	nop 
 264:	84 10 00 08 	mov  %o0, %g2
 268:	c2 07 bf d0 	ld  [ %fp + -48 ], %g1
 26c:	82 10 40 02 	or  %g1, %g2, %g1
 270:	c2 27 bf d0 	st  %g1, [ %fp + -48 ]
 274:	88 07 a0 48 	add  %fp, 0x48, %g4
 278:	c2 01 00 00 	ld  [ %g4 ], %g1
 27c:	86 10 00 01 	mov  %g1, %g3
 280:	c4 07 bf e0 	ld  [ %fp + -32 ], %g2
 284:	c4 20 c0 00 	st  %g2, [ %g3 ]
 288:	82 00 60 04 	add  %g1, 4, %g1
 28c:	c2 21 00 00 	st  %g1, [ %g4 ]
 290:	c2 07 bf f0 	ld  [ %fp + -16 ], %g1
 294:	82 00 7f ff 	add  %g1, -1, %g1
 298:	c2 27 bf f0 	st  %g1, [ %fp + -16 ]
 29c:	80 a0 60 00 	cmp  %g1, 0
 2a0:	12 bf ff cc 	bne  1d0 <StereoProcessGroup+0x1c8>
 2a4:	01 00 00 00 	nop 
 2a8:	10 80 00 b9 	b  58c <StereoProcessGroup+0x584>
 2ac:	01 00 00 00 	nop 
 2b0:	c2 07 bf d8 	ld  [ %fp + -40 ], %g1
 2b4:	82 20 00 01 	neg  %g1
 2b8:	c2 27 bf d8 	st  %g1, [ %fp + -40 ]
 2bc:	c2 07 bf d8 	ld  [ %fp + -40 ], %g1
 2c0:	80 a0 60 1f 	cmp  %g1, 0x1f
 2c4:	04 80 00 04 	ble  2d4 <StereoProcessGroup+0x2cc>
 2c8:	01 00 00 00 	nop 
 2cc:	82 10 20 1f 	mov  0x1f, %g1	! 1f <StereoProcessGroup+0x17>
 2d0:	c2 27 bf d8 	st  %g1, [ %fp + -40 ]
 2d4:	01 00 00 00 	nop 
 2d8:	c2 07 a0 44 	ld  [ %fp + 0x44 ], %g1
 2dc:	c4 00 40 00 	ld  [ %g1 ], %g2
 2e0:	82 00 60 04 	add  %g1, 4, %g1
 2e4:	c2 27 a0 44 	st  %g1, [ %fp + 0x44 ]
 2e8:	90 10 00 02 	mov  %g2, %o0
 2ec:	d2 07 bf dc 	ld  [ %fp + -36 ], %o1
 2f0:	40 00 01 b0 	call  9b0 <MULSHIFT32>
 2f4:	01 00 00 00 	nop 
 2f8:	84 10 00 08 	mov  %o0, %g2
 2fc:	c2 07 bf d8 	ld  [ %fp + -40 ], %g1
 300:	83 38 80 01 	sra  %g2, %g1, %g1
 304:	c2 27 bf e0 	st  %g1, [ %fp + -32 ]
 308:	d0 07 bf e0 	ld  [ %fp + -32 ], %o0
 30c:	40 00 01 c3 	call  a18 <FASTABS>
 310:	01 00 00 00 	nop 
 314:	84 10 00 08 	mov  %o0, %g2
 318:	c2 07 bf d0 	ld  [ %fp + -48 ], %g1
 31c:	82 10 40 02 	or  %g1, %g2, %g1
 320:	c2 27 bf d0 	st  %g1, [ %fp + -48 ]
 324:	88 07 a0 48 	add  %fp, 0x48, %g4
 328:	c2 01 00 00 	ld  [ %g4 ], %g1
 32c:	86 10 00 01 	mov  %g1, %g3
 330:	c4 07 bf e0 	ld  [ %fp + -32 ], %g2
 334:	c4 20 c0 00 	st  %g2, [ %g3 ]
 338:	82 00 60 04 	add  %g1, 4, %g1
 33c:	c2 21 00 00 	st  %g1, [ %g4 ]
 340:	c2 07 bf f0 	ld  [ %fp + -16 ], %g1
 344:	82 00 7f ff 	add  %g1, -1, %g1
 348:	c2 27 bf f0 	st  %g1, [ %fp + -16 ]
 34c:	80 a0 60 00 	cmp  %g1, 0
 350:	12 bf ff e2 	bne  2d8 <StereoProcessGroup+0x2d0>
 354:	01 00 00 00 	nop 
 358:	10 80 00 8d 	b  58c <StereoProcessGroup+0x584>
 35c:	01 00 00 00 	nop 
 360:	c2 07 bf ec 	ld  [ %fp + -20 ], %g1
 364:	80 a0 60 0d 	cmp  %g1, 0xd
 368:	02 80 00 7f 	be  564 <StereoProcessGroup+0x55c>
 36c:	01 00 00 00 	nop 
 370:	c2 07 a0 50 	ld  [ %fp + 0x50 ], %g1
 374:	80 a0 60 01 	cmp  %g1, 1
 378:	12 80 00 08 	bne  398 <StereoProcessGroup+0x390>
 37c:	01 00 00 00 	nop 
 380:	c2 0f bf cf 	ldub  [ %fp + -49 ], %g1
 384:	82 08 60 ff 	and  %g1, 0xff, %g1
 388:	82 08 60 01 	and  %g1, 1, %g1
 38c:	80 a0 60 00 	cmp  %g1, 0
 390:	12 80 00 08 	bne  3b0 <StereoProcessGroup+0x3a8>
 394:	01 00 00 00 	nop 
 398:	c2 07 a0 50 	ld  [ %fp + 0x50 ], %g1
 39c:	80 a0 60 02 	cmp  %g1, 2
 3a0:	02 80 00 04 	be  3b0 <StereoProcessGroup+0x3a8>
 3a4:	01 00 00 00 	nop 
 3a8:	10 80 00 6f 	b  564 <StereoProcessGroup+0x55c>
 3ac:	01 00 00 00 	nop 
 3b0:	c2 07 a0 44 	ld  [ %fp + 0x44 ], %g1
 3b4:	c2 00 40 00 	ld  [ %g1 ], %g1
 3b8:	c2 27 bf e4 	st  %g1, [ %fp + -28 ]
 3bc:	c2 07 a0 48 	ld  [ %fp + 0x48 ], %g1
 3c0:	c2 00 40 00 	ld  [ %g1 ], %g1
 3c4:	c2 27 bf e0 	st  %g1, [ %fp + -32 ]
 3c8:	d0 07 bf e4 	ld  [ %fp + -28 ], %o0
 3cc:	40 00 01 93 	call  a18 <FASTABS>
 3d0:	01 00 00 00 	nop 
 3d4:	a0 10 00 08 	mov  %o0, %l0
 3d8:	d0 07 bf e0 	ld  [ %fp + -32 ], %o0
 3dc:	40 00 01 8f 	call  a18 <FASTABS>
 3e0:	01 00 00 00 	nop 
 3e4:	82 10 00 08 	mov  %o0, %g1
 3e8:	82 14 00 01 	or  %l0, %g1, %g1
 3ec:	83 38 60 1e 	sra  %g1, 0x1e, %g1
 3f0:	80 a0 60 00 	cmp  %g1, 0
 3f4:	02 80 00 31 	be  4b8 <StereoProcessGroup+0x4b0>
 3f8:	01 00 00 00 	nop 
 3fc:	c2 07 bf e4 	ld  [ %fp + -28 ], %g1
 400:	83 38 60 01 	sra  %g1, 1, %g1
 404:	c2 27 bf e4 	st  %g1, [ %fp + -28 ]
 408:	c2 07 bf e0 	ld  [ %fp + -32 ], %g1
 40c:	85 38 60 01 	sra  %g1, 1, %g2
 410:	c2 07 bf e4 	ld  [ %fp + -28 ], %g1
 414:	82 00 40 02 	add  %g1, %g2, %g1
 418:	c2 27 bf e8 	st  %g1, [ %fp + -24 ]
 41c:	c2 07 bf e8 	ld  [ %fp + -24 ], %g1
 420:	85 38 60 1f 	sra  %g1, 0x1f, %g2
 424:	c2 07 bf e8 	ld  [ %fp + -24 ], %g1
 428:	83 38 60 1e 	sra  %g1, 0x1e, %g1
 42c:	80 a0 80 01 	cmp  %g2, %g1
 430:	02 80 00 08 	be  450 <StereoProcessGroup+0x448>
 434:	01 00 00 00 	nop 
 438:	c2 07 bf e8 	ld  [ %fp + -24 ], %g1
 43c:	85 38 60 1f 	sra  %g1, 0x1f, %g2
 440:	03 0f ff ff 	sethi  %hi(0x3ffffc00), %g1
 444:	82 10 63 ff 	or  %g1, 0x3ff, %g1	! 3fffffff <CLZ+0x3ffff5a3>
 448:	82 18 80 01 	xor  %g2, %g1, %g1
 44c:	c2 27 bf e8 	st  %g1, [ %fp + -24 ]
 450:	c2 07 bf e8 	ld  [ %fp + -24 ], %g1
 454:	82 00 40 01 	add  %g1, %g1, %g1
 458:	c2 27 bf e8 	st  %g1, [ %fp + -24 ]
 45c:	c2 07 bf e0 	ld  [ %fp + -32 ], %g1
 460:	85 38 60 01 	sra  %g1, 1, %g2
 464:	c2 07 bf e4 	ld  [ %fp + -28 ], %g1
 468:	82 20 40 02 	sub  %g1, %g2, %g1
 46c:	c2 27 bf e4 	st  %g1, [ %fp + -28 ]
 470:	c2 07 bf e4 	ld  [ %fp + -28 ], %g1
 474:	85 38 60 1f 	sra  %g1, 0x1f, %g2
 478:	c2 07 bf e4 	ld  [ %fp + -28 ], %g1
 47c:	83 38 60 1e 	sra  %g1, 0x1e, %g1
 480:	80 a0 80 01 	cmp  %g2, %g1
 484:	02 80 00 08 	be  4a4 <StereoProcessGroup+0x49c>
 488:	01 00 00 00 	nop 
 48c:	c2 07 bf e4 	ld  [ %fp + -28 ], %g1
 490:	85 38 60 1f 	sra  %g1, 0x1f, %g2
 494:	03 0f ff ff 	sethi  %hi(0x3ffffc00), %g1
 498:	82 10 63 ff 	or  %g1, 0x3ff, %g1	! 3fffffff <CLZ+0x3ffff5a3>
 49c:	82 18 80 01 	xor  %g2, %g1, %g1
 4a0:	c2 27 bf e4 	st  %g1, [ %fp + -28 ]
 4a4:	c2 07 bf e4 	ld  [ %fp + -28 ], %g1
 4a8:	82 00 40 01 	add  %g1, %g1, %g1
 4ac:	c2 27 bf e4 	st  %g1, [ %fp + -28 ]
 4b0:	10 80 00 0a 	b  4d8 <StereoProcessGroup+0x4d0>
 4b4:	01 00 00 00 	nop 
 4b8:	c4 07 bf e4 	ld  [ %fp + -28 ], %g2
 4bc:	c2 07 bf e0 	ld  [ %fp + -32 ], %g1
 4c0:	82 00 80 01 	add  %g2, %g1, %g1
 4c4:	c2 27 bf e8 	st  %g1, [ %fp + -24 ]
 4c8:	c4 07 bf e4 	ld  [ %fp + -28 ], %g2
 4cc:	c2 07 bf e0 	ld  [ %fp + -32 ], %g1
 4d0:	82 20 80 01 	sub  %g2, %g1, %g1
 4d4:	c2 27 bf e4 	st  %g1, [ %fp + -28 ]
 4d8:	c2 07 a0 44 	ld  [ %fp + 0x44 ], %g1
 4dc:	86 10 00 01 	mov  %g1, %g3
 4e0:	c4 07 bf e8 	ld  [ %fp + -24 ], %g2
 4e4:	c4 20 c0 00 	st  %g2, [ %g3 ]
 4e8:	82 00 60 04 	add  %g1, 4, %g1
 4ec:	c2 27 a0 44 	st  %g1, [ %fp + 0x44 ]
 4f0:	d0 07 bf e8 	ld  [ %fp + -24 ], %o0
 4f4:	40 00 01 49 	call  a18 <FASTABS>
 4f8:	01 00 00 00 	nop 
 4fc:	84 10 00 08 	mov  %o0, %g2
 500:	c2 07 bf d4 	ld  [ %fp + -44 ], %g1
 504:	82 10 40 02 	or  %g1, %g2, %g1
 508:	c2 27 bf d4 	st  %g1, [ %fp + -44 ]
 50c:	88 07 a0 48 	add  %fp, 0x48, %g4
 510:	c2 01 00 00 	ld  [ %g4 ], %g1
 514:	86 10 00 01 	mov  %g1, %g3
 518:	c4 07 bf e4 	ld  [ %fp + -28 ], %g2
 51c:	c4 20 c0 00 	st  %g2, [ %g3 ]
 520:	82 00 60 04 	add  %g1, 4, %g1
 524:	c2 21 00 00 	st  %g1, [ %g4 ]
 528:	d0 07 bf e4 	ld  [ %fp + -28 ], %o0
 52c:	40 00 01 3b 	call  a18 <FASTABS>
 530:	01 00 00 00 	nop 
 534:	84 10 00 08 	mov  %o0, %g2
 538:	c2 07 bf d0 	ld  [ %fp + -48 ], %g1
 53c:	82 10 40 02 	or  %g1, %g2, %g1
 540:	c2 27 bf d0 	st  %g1, [ %fp + -48 ]
 544:	c2 07 bf f0 	ld  [ %fp + -16 ], %g1
 548:	82 00 7f ff 	add  %g1, -1, %g1
 54c:	c2 27 bf f0 	st  %g1, [ %fp + -16 ]
 550:	80 a0 60 00 	cmp  %g1, 0
 554:	12 bf ff 97 	bne  3b0 <StereoProcessGroup+0x3a8>
 558:	01 00 00 00 	nop 
 55c:	10 80 00 0c 	b  58c <StereoProcessGroup+0x584>
 560:	01 00 00 00 	nop 
 564:	c2 07 bf f0 	ld  [ %fp + -16 ], %g1
 568:	85 28 60 02 	sll  %g1, 2, %g2
 56c:	c2 07 a0 44 	ld  [ %fp + 0x44 ], %g1
 570:	82 00 40 02 	add  %g1, %g2, %g1
 574:	c2 27 a0 44 	st  %g1, [ %fp + 0x44 ]
 578:	c2 07 bf f0 	ld  [ %fp + -16 ], %g1
 57c:	85 28 60 02 	sll  %g1, 2, %g2
 580:	c2 07 a0 48 	ld  [ %fp + 0x48 ], %g1
 584:	82 00 40 02 	add  %g1, %g2, %g1
 588:	c2 27 a0 48 	st  %g1, [ %fp + 0x48 ]
 58c:	c2 0f bf cf 	ldub  [ %fp + -49 ], %g1
 590:	82 08 60 ff 	and  %g1, 0xff, %g1
 594:	83 30 60 01 	srl  %g1, 1, %g1
 598:	c2 2f bf cf 	stb  %g1, [ %fp + -49 ]
 59c:	c2 07 a0 58 	ld  [ %fp + 0x58 ], %g1
 5a0:	82 00 60 01 	inc  %g1
 5a4:	c2 27 a0 58 	st  %g1, [ %fp + 0x58 ]
 5a8:	80 a0 60 08 	cmp  %g1, 8
 5ac:	12 80 00 09 	bne  5d0 <StereoProcessGroup+0x5c8>
 5b0:	01 00 00 00 	nop 
 5b4:	82 07 a0 54 	add  %fp, 0x54, %g1
 5b8:	c4 00 40 00 	ld  [ %g1 ], %g2
 5bc:	c6 08 80 00 	ldub  [ %g2 ], %g3
 5c0:	84 00 a0 01 	inc  %g2
 5c4:	c4 20 40 00 	st  %g2, [ %g1 ]
 5c8:	c6 2f bf cf 	stb  %g3, [ %fp + -49 ]
 5cc:	c0 27 a0 58 	clr  [ %fp + 0x58 ]
 5d0:	c2 07 bf f4 	ld  [ %fp + -12 ], %g1
 5d4:	82 00 60 01 	inc  %g1
 5d8:	c2 27 bf f4 	st  %g1, [ %fp + -12 ]
 5dc:	10 bf fe a2 	b  64 <StereoProcessGroup+0x5c>
 5e0:	01 00 00 00 	nop 
 5e4:	d0 07 bf d4 	ld  [ %fp + -44 ], %o0
 5e8:	40 00 01 1d 	call  a5c <CLZ>
 5ec:	01 00 00 00 	nop 
 5f0:	82 10 00 08 	mov  %o0, %g1
 5f4:	82 00 7f ff 	add  %g1, -1, %g1
 5f8:	c2 27 bf e4 	st  %g1, [ %fp + -28 ]
 5fc:	c2 07 a0 68 	ld  [ %fp + 0x68 ], %g1
 600:	c4 00 40 00 	ld  [ %g1 ], %g2
 604:	c2 07 bf e4 	ld  [ %fp + -28 ], %g1
 608:	80 a0 80 01 	cmp  %g2, %g1
 60c:	04 80 00 05 	ble  620 <StereoProcessGroup+0x618>
 610:	01 00 00 00 	nop 
 614:	c4 07 a0 68 	ld  [ %fp + 0x68 ], %g2
 618:	c2 07 bf e4 	ld  [ %fp + -28 ], %g1
 61c:	c2 20 80 00 	st  %g1, [ %g2 ]
 620:	d0 07 bf d0 	ld  [ %fp + -48 ], %o0
 624:	40 00 01 0e 	call  a5c <CLZ>
 628:	01 00 00 00 	nop 
 62c:	82 10 00 08 	mov  %o0, %g1
 630:	82 00 7f ff 	add  %g1, -1, %g1
 634:	c2 27 bf e0 	st  %g1, [ %fp + -32 ]
 638:	c2 07 a0 68 	ld  [ %fp + 0x68 ], %g1
 63c:	82 00 60 04 	add  %g1, 4, %g1
 640:	c4 00 40 00 	ld  [ %g1 ], %g2
 644:	c2 07 bf e0 	ld  [ %fp + -32 ], %g1
 648:	80 a0 80 01 	cmp  %g2, %g1
 64c:	04 80 00 06 	ble  664 <StereoProcessGroup+0x65c>
 650:	01 00 00 00 	nop 
 654:	c2 07 a0 68 	ld  [ %fp + 0x68 ], %g1
 658:	84 00 60 04 	add  %g1, 4, %g2
 65c:	c2 07 bf e0 	ld  [ %fp + -32 ], %g1
 660:	c2 20 80 00 	st  %g1, [ %g2 ]
 664:	81 c7 e0 08 	ret 
 668:	81 e8 00 00 	restore 

0000066c <raac_StereoProcess>:
 66c:	9d e3 bf 58 	save  %sp, -168, %sp
 670:	2f 00 00 00 	sethi  %hi(0), %l7
 674:	7f ff fe 63 	call  0 <StereoProcessGroup-0x8>
 678:	ae 05 e0 00 	add  %l7, 0, %l7	! 0 <StereoProcessGroup-0x8>
 67c:	f0 27 a0 44 	st  %i0, [ %fp + 0x44 ]
 680:	c2 07 a0 44 	ld  [ %fp + 0x44 ], %g1
 684:	80 a0 60 00 	cmp  %g1, 0
 688:	02 80 00 07 	be  6a4 <raac_StereoProcess+0x38>
 68c:	01 00 00 00 	nop 
 690:	c2 07 a0 44 	ld  [ %fp + 0x44 ], %g1
 694:	c2 00 40 00 	ld  [ %g1 ], %g1
 698:	80 a0 60 00 	cmp  %g1, 0
 69c:	12 80 00 06 	bne  6b4 <raac_StereoProcess+0x48>
 6a0:	01 00 00 00 	nop 
 6a4:	82 10 3f ff 	mov  -1, %g1	! ffffffff <CLZ+0xfffff5a3>
 6a8:	c2 27 bf cc 	st  %g1, [ %fp + -52 ]
 6ac:	10 80 00 be 	b  9a4 <raac_StereoProcess+0x338>
 6b0:	01 00 00 00 	nop 
 6b4:	c2 07 a0 44 	ld  [ %fp + 0x44 ], %g1
 6b8:	c2 00 40 00 	ld  [ %g1 ], %g1
 6bc:	c2 27 bf f4 	st  %g1, [ %fp + -12 ]
 6c0:	c2 07 bf f4 	ld  [ %fp + -12 ], %g1
 6c4:	c2 00 68 f0 	ld  [ %g1 + 0x8f0 ], %g1
 6c8:	80 a0 60 01 	cmp  %g1, 1
 6cc:	12 80 00 09 	bne  6f0 <raac_StereoProcess+0x84>
 6d0:	01 00 00 00 	nop 
 6d4:	c2 07 a0 44 	ld  [ %fp + 0x44 ], %g1
 6d8:	c2 00 60 28 	ld  [ %g1 + 0x28 ], %g1
 6dc:	80 a0 60 01 	cmp  %g1, 1
 6e0:	12 80 00 04 	bne  6f0 <raac_StereoProcess+0x84>
 6e4:	01 00 00 00 	nop 
 6e8:	10 80 00 05 	b  6fc <raac_StereoProcess+0x90>
 6ec:	01 00 00 00 	nop 
 6f0:	c0 27 bf cc 	clr  [ %fp + -52 ]
 6f4:	10 80 00 ac 	b  9a4 <raac_StereoProcess+0x338>
 6f8:	01 00 00 00 	nop 
 6fc:	c2 07 bf f4 	ld  [ %fp + -12 ], %g1
 700:	c2 00 6b c4 	ld  [ %g1 + 0xbc4 ], %g1
 704:	80 a0 60 00 	cmp  %g1, 0
 708:	12 80 00 0a 	bne  730 <raac_StereoProcess+0xc4>
 70c:	01 00 00 00 	nop 
 710:	c2 07 bf f4 	ld  [ %fp + -12 ], %g1
 714:	c2 00 6b e8 	ld  [ %g1 + 0xbe8 ], %g1
 718:	80 a0 60 00 	cmp  %g1, 0
 71c:	12 80 00 05 	bne  730 <raac_StereoProcess+0xc4>
 720:	01 00 00 00 	nop 
 724:	c0 27 bf cc 	clr  [ %fp + -52 ]
 728:	10 80 00 9f 	b  9a4 <raac_StereoProcess+0x338>
 72c:	01 00 00 00 	nop 
 730:	c2 07 bf f4 	ld  [ %fp + -12 ], %g1
 734:	82 00 68 7c 	add  %g1, 0x87c, %g1
 738:	c2 27 bf f0 	st  %g1, [ %fp + -16 ]
 73c:	c2 07 bf f0 	ld  [ %fp + -16 ], %g1
 740:	c2 08 60 01 	ldub  [ %g1 + 1 ], %g1
 744:	82 08 60 ff 	and  %g1, 0xff, %g1
 748:	80 a0 60 02 	cmp  %g1, 2
 74c:	12 80 00 13 	bne  798 <raac_StereoProcess+0x12c>
 750:	01 00 00 00 	nop 
 754:	03 00 00 00 	sethi  %hi(0), %g1
 758:	82 10 60 00 	mov  %g1, %g1	! 0 <StereoProcessGroup-0x8>
 75c:	c4 05 c0 01 	ld  [ %l7 + %g1 ], %g2
 760:	c2 07 bf f4 	ld  [ %fp + -12 ], %g1
 764:	c2 00 68 78 	ld  [ %g1 + 0x878 ], %g1
 768:	83 28 60 02 	sll  %g1, 2, %g1
 76c:	c2 00 80 01 	ld  [ %g2 + %g1 ], %g1
 770:	84 00 40 01 	add  %g1, %g1, %g2
 774:	03 00 00 00 	sethi  %hi(0), %g1
 778:	82 10 60 00 	mov  %g1, %g1	! 0 <StereoProcessGroup-0x8>
 77c:	c2 05 c0 01 	ld  [ %l7 + %g1 ], %g1
 780:	82 00 40 02 	add  %g1, %g2, %g1
 784:	c2 27 bf d0 	st  %g1, [ %fp + -48 ]
 788:	82 10 20 80 	mov  0x80, %g1
 78c:	c2 27 bf e4 	st  %g1, [ %fp + -28 ]
 790:	10 80 00 11 	b  7d4 <raac_StereoProcess+0x168>
 794:	01 00 00 00 	nop 
 798:	03 00 00 00 	sethi  %hi(0), %g1
 79c:	82 10 60 00 	mov  %g1, %g1	! 0 <StereoProcessGroup-0x8>
 7a0:	c4 05 c0 01 	ld  [ %l7 + %g1 ], %g2
 7a4:	c2 07 bf f4 	ld  [ %fp + -12 ], %g1
 7a8:	c2 00 68 78 	ld  [ %g1 + 0x878 ], %g1
 7ac:	83 28 60 02 	sll  %g1, 2, %g1
 7b0:	c2 00 80 01 	ld  [ %g2 + %g1 ], %g1
 7b4:	84 00 40 01 	add  %g1, %g1, %g2
 7b8:	03 00 00 00 	sethi  %hi(0), %g1
 7bc:	82 10 60 00 	mov  %g1, %g1	! 0 <StereoProcessGroup-0x8>
 7c0:	c2 05 c0 01 	ld  [ %l7 + %g1 ], %g1
 7c4:	82 00 40 02 	add  %g1, %g2, %g1
 7c8:	c2 27 bf d0 	st  %g1, [ %fp + -48 ]
 7cc:	82 10 24 00 	mov  0x400, %g1
 7d0:	c2 27 bf e4 	st  %g1, [ %fp + -28 ]
 7d4:	c4 07 bf f4 	ld  [ %fp + -12 ], %g2
 7d8:	03 00 00 04 	sethi  %hi(0x1000), %g1
 7dc:	82 10 60 48 	or  %g1, 0x48, %g1	! 1048 <CLZ+0x5ec>
 7e0:	82 00 80 01 	add  %g2, %g1, %g1
 7e4:	c2 27 bf dc 	st  %g1, [ %fp + -36 ]
 7e8:	c4 07 bf f4 	ld  [ %fp + -12 ], %g2
 7ec:	03 00 00 08 	sethi  %hi(0x2000), %g1
 7f0:	82 10 60 48 	or  %g1, 0x48, %g1	! 2048 <CLZ+0x15ec>
 7f4:	82 00 80 01 	add  %g2, %g1, %g1
 7f8:	c2 27 bf d8 	st  %g1, [ %fp + -40 ]
 7fc:	c0 27 bf e0 	clr  [ %fp + -32 ]
 800:	c2 07 bf f4 	ld  [ %fp + -12 ], %g1
 804:	82 00 6b c8 	add  %g1, 0xbc8, %g1
 808:	c2 27 bf d4 	st  %g1, [ %fp + -44 ]
 80c:	c0 27 bf ec 	clr  [ %fp + -20 ]
 810:	c2 07 bf f0 	ld  [ %fp + -16 ], %g1
 814:	c2 08 60 31 	ldub  [ %g1 + 0x31 ], %g1
 818:	84 08 60 ff 	and  %g1, 0xff, %g2
 81c:	c2 07 bf ec 	ld  [ %fp + -20 ], %g1
 820:	80 a0 40 02 	cmp  %g1, %g2
 824:	06 80 00 04 	bl  834 <raac_StereoProcess+0x1c8>
 828:	01 00 00 00 	nop 
 82c:	10 80 00 5d 	b  9a0 <raac_StereoProcess+0x334>
 830:	01 00 00 00 	nop 
 834:	c0 27 bf e8 	clr  [ %fp + -24 ]
 838:	c4 07 bf f0 	ld  [ %fp + -16 ], %g2
 83c:	c2 07 bf ec 	ld  [ %fp + -20 ], %g1
 840:	82 00 80 01 	add  %g2, %g1, %g1
 844:	c2 08 60 32 	ldub  [ %g1 + 0x32 ], %g1
 848:	84 08 60 ff 	and  %g1, 0xff, %g2
 84c:	c2 07 bf e8 	ld  [ %fp + -24 ], %g1
 850:	80 a0 40 02 	cmp  %g1, %g2
 854:	06 80 00 04 	bl  864 <raac_StereoProcess+0x1f8>
 858:	01 00 00 00 	nop 
 85c:	10 80 00 3c 	b  94c <raac_StereoProcess+0x2e0>
 860:	01 00 00 00 	nop 
 864:	e0 07 bf f4 	ld  [ %fp + -12 ], %l0
 868:	c2 07 bf f0 	ld  [ %fp + -16 ], %g1
 86c:	c2 08 60 03 	ldub  [ %g1 + 3 ], %g1
 870:	82 08 60 ff 	and  %g1, 0xff, %g1
 874:	c2 23 a0 5c 	st  %g1, [ %sp + 0x5c ]
 878:	c2 07 bf f0 	ld  [ %fp + -16 ], %g1
 87c:	c2 08 60 03 	ldub  [ %g1 + 3 ], %g1
 880:	82 08 60 ff 	and  %g1, 0xff, %g1
 884:	90 10 00 01 	mov  %g1, %o0
 888:	d2 07 bf ec 	ld  [ %fp + -20 ], %o1
 88c:	40 00 00 00 	call  88c <raac_StereoProcess+0x220>
 890:	01 00 00 00 	nop 
 894:	84 10 00 08 	mov  %o0, %g2
 898:	c2 07 bf f4 	ld  [ %fp + -12 ], %g1
 89c:	82 00 80 01 	add  %g2, %g1, %g1
 8a0:	82 00 6b 4c 	add  %g1, 0xb4c, %g1
 8a4:	c2 23 a0 60 	st  %g1, [ %sp + 0x60 ]
 8a8:	c2 07 bf f0 	ld  [ %fp + -16 ], %g1
 8ac:	c2 08 60 03 	ldub  [ %g1 + 3 ], %g1
 8b0:	82 08 60 ff 	and  %g1, 0xff, %g1
 8b4:	90 10 00 01 	mov  %g1, %o0
 8b8:	d2 07 bf ec 	ld  [ %fp + -20 ], %o1
 8bc:	40 00 00 00 	call  8bc <raac_StereoProcess+0x250>
 8c0:	01 00 00 00 	nop 
 8c4:	82 10 00 08 	mov  %o0, %g1
 8c8:	84 00 40 01 	add  %g1, %g1, %g2
 8cc:	c2 07 bf f4 	ld  [ %fp + -12 ], %g1
 8d0:	82 00 80 01 	add  %g2, %g1, %g1
 8d4:	82 00 69 e4 	add  %g1, 0x9e4, %g1
 8d8:	c2 23 a0 64 	st  %g1, [ %sp + 0x64 ]
 8dc:	c4 07 bf f4 	ld  [ %fp + -12 ], %g2
 8e0:	03 00 00 04 	sethi  %hi(0x1000), %g1
 8e4:	82 10 60 40 	or  %g1, 0x40, %g1	! 1040 <CLZ+0x5e4>
 8e8:	82 00 80 01 	add  %g2, %g1, %g1
 8ec:	c2 23 a0 68 	st  %g1, [ %sp + 0x68 ]
 8f0:	d0 07 bf dc 	ld  [ %fp + -36 ], %o0
 8f4:	d2 07 bf d8 	ld  [ %fp + -40 ], %o1
 8f8:	d4 07 bf d0 	ld  [ %fp + -48 ], %o2
 8fc:	d6 04 2b c4 	ld  [ %l0 + 0xbc4 ], %o3
 900:	d8 07 bf d4 	ld  [ %fp + -44 ], %o4
 904:	da 07 bf e0 	ld  [ %fp + -32 ], %o5
 908:	7f ff fd c0 	call  8 <StereoProcessGroup>
 90c:	01 00 00 00 	nop 
 910:	c2 07 bf e4 	ld  [ %fp + -28 ], %g1
 914:	85 28 60 02 	sll  %g1, 2, %g2
 918:	c2 07 bf dc 	ld  [ %fp + -36 ], %g1
 91c:	82 00 40 02 	add  %g1, %g2, %g1
 920:	c2 27 bf dc 	st  %g1, [ %fp + -36 ]
 924:	c2 07 bf e4 	ld  [ %fp + -28 ], %g1
 928:	85 28 60 02 	sll  %g1, 2, %g2
 92c:	c2 07 bf d8 	ld  [ %fp + -40 ], %g1
 930:	82 00 40 02 	add  %g1, %g2, %g1
 934:	c2 27 bf d8 	st  %g1, [ %fp + -40 ]
 938:	c2 07 bf e8 	ld  [ %fp + -24 ], %g1
 93c:	82 00 60 01 	inc  %g1
 940:	c2 27 bf e8 	st  %g1, [ %fp + -24 ]
 944:	10 bf ff bd 	b  838 <raac_StereoProcess+0x1cc>
 948:	01 00 00 00 	nop 
 94c:	c2 07 bf f0 	ld  [ %fp + -16 ], %g1
 950:	c2 08 60 03 	ldub  [ %g1 + 3 ], %g1
 954:	84 08 60 ff 	and  %g1, 0xff, %g2
 958:	c2 07 bf e0 	ld  [ %fp + -32 ], %g1
 95c:	82 00 80 01 	add  %g2, %g1, %g1
 960:	85 38 60 03 	sra  %g1, 3, %g2
 964:	c2 07 bf d4 	ld  [ %fp + -44 ], %g1
 968:	82 00 40 02 	add  %g1, %g2, %g1
 96c:	c2 27 bf d4 	st  %g1, [ %fp + -44 ]
 970:	c2 07 bf f0 	ld  [ %fp + -16 ], %g1
 974:	c2 08 60 03 	ldub  [ %g1 + 3 ], %g1
 978:	84 08 60 ff 	and  %g1, 0xff, %g2
 97c:	c2 07 bf e0 	ld  [ %fp + -32 ], %g1
 980:	82 00 80 01 	add  %g2, %g1, %g1
 984:	82 08 60 07 	and  %g1, 7, %g1
 988:	c2 27 bf e0 	st  %g1, [ %fp + -32 ]
 98c:	c2 07 bf ec 	ld  [ %fp + -20 ], %g1
 990:	82 00 60 01 	inc  %g1
 994:	c2 27 bf ec 	st  %g1, [ %fp + -20 ]
 998:	10 bf ff 9e 	b  810 <raac_StereoProcess+0x1a4>
 99c:	01 00 00 00 	nop 
 9a0:	c0 27 bf cc 	clr  [ %fp + -52 ]
 9a4:	f0 07 bf cc 	ld  [ %fp + -52 ], %i0
 9a8:	81 c7 e0 08 	ret 
 9ac:	81 e8 00 00 	restore 

000009b0 <MULSHIFT32>:
 9b0:	9d e3 bf 90 	save  %sp, -112, %sp
 9b4:	f0 27 a0 44 	st  %i0, [ %fp + 0x44 ]
 9b8:	f2 27 a0 48 	st  %i1, [ %fp + 0x48 ]
 9bc:	c2 07 a0 44 	ld  [ %fp + 0x44 ], %g1
 9c0:	83 38 60 1f 	sra  %g1, 0x1f, %g1
 9c4:	da 07 a0 44 	ld  [ %fp + 0x44 ], %o5
 9c8:	98 10 00 01 	mov  %g1, %o4
 9cc:	c2 07 a0 48 	ld  [ %fp + 0x48 ], %g1
 9d0:	83 38 60 1f 	sra  %g1, 0x1f, %g1
 9d4:	c6 07 a0 48 	ld  [ %fp + 0x48 ], %g3
 9d8:	84 10 00 01 	mov  %g1, %g2
 9dc:	90 10 00 0c 	mov  %o4, %o0
 9e0:	92 10 00 0d 	mov  %o5, %o1
 9e4:	94 10 00 02 	mov  %g2, %o2
 9e8:	96 10 00 03 	mov  %g3, %o3
 9ec:	40 00 00 00 	call  9ec <MULSHIFT32+0x3c>
 9f0:	01 00 00 00 	nop 
 9f4:	98 10 00 08 	mov  %o0, %o4
 9f8:	9a 10 00 09 	mov  %o1, %o5
 9fc:	87 3b 20 00 	sra  %o4, 0, %g3
 a00:	85 3b 20 1f 	sra  %o4, 0x1f, %g2
 a04:	c6 27 bf f4 	st  %g3, [ %fp + -12 ]
 a08:	c2 07 bf f4 	ld  [ %fp + -12 ], %g1
 a0c:	b0 10 00 01 	mov  %g1, %i0
 a10:	81 c7 e0 08 	ret 
 a14:	81 e8 00 00 	restore 

00000a18 <FASTABS>:
 a18:	9d e3 bf 90 	save  %sp, -112, %sp
 a1c:	f0 27 a0 44 	st  %i0, [ %fp + 0x44 ]
 a20:	c2 07 a0 44 	ld  [ %fp + 0x44 ], %g1
 a24:	83 38 60 1f 	sra  %g1, 0x1f, %g1
 a28:	c2 27 bf f4 	st  %g1, [ %fp + -12 ]
 a2c:	c4 07 a0 44 	ld  [ %fp + 0x44 ], %g2
 a30:	c2 07 bf f4 	ld  [ %fp + -12 ], %g1
 a34:	82 18 80 01 	xor  %g2, %g1, %g1
 a38:	c2 27 a0 44 	st  %g1, [ %fp + 0x44 ]
 a3c:	c4 07 a0 44 	ld  [ %fp + 0x44 ], %g2
 a40:	c2 07 bf f4 	ld  [ %fp + -12 ], %g1
 a44:	82 20 80 01 	sub  %g2, %g1, %g1
 a48:	c2 27 a0 44 	st  %g1, [ %fp + 0x44 ]
 a4c:	c2 07 a0 44 	ld  [ %fp + 0x44 ], %g1
 a50:	b0 10 00 01 	mov  %g1, %i0
 a54:	81 c7 e0 08 	ret 
 a58:	81 e8 00 00 	restore 

00000a5c <CLZ>:
 a5c:	9d e3 bf 90 	save  %sp, -112, %sp
 a60:	f0 27 a0 44 	st  %i0, [ %fp + 0x44 ]
 a64:	c2 07 a0 44 	ld  [ %fp + 0x44 ], %g1
 a68:	80 a0 60 00 	cmp  %g1, 0
 a6c:	12 80 00 06 	bne  a84 <CLZ+0x28>
 a70:	01 00 00 00 	nop 
 a74:	82 10 20 20 	mov  0x20, %g1	! 20 <StereoProcessGroup+0x18>
 a78:	c2 27 bf f0 	st  %g1, [ %fp + -16 ]
 a7c:	10 80 00 37 	b  b58 <CLZ+0xfc>
 a80:	01 00 00 00 	nop 
 a84:	82 10 20 01 	mov  1, %g1	! 1 <StereoProcessGroup-0x7>
 a88:	c2 27 bf f4 	st  %g1, [ %fp + -12 ]
 a8c:	c2 07 a0 44 	ld  [ %fp + 0x44 ], %g1
 a90:	83 30 60 10 	srl  %g1, 0x10, %g1
 a94:	80 a0 60 00 	cmp  %g1, 0
 a98:	12 80 00 08 	bne  ab8 <CLZ+0x5c>
 a9c:	01 00 00 00 	nop 
 aa0:	c2 07 bf f4 	ld  [ %fp + -12 ], %g1
 aa4:	82 00 60 10 	add  %g1, 0x10, %g1
 aa8:	c2 27 bf f4 	st  %g1, [ %fp + -12 ]
 aac:	c2 07 a0 44 	ld  [ %fp + 0x44 ], %g1
 ab0:	83 28 60 10 	sll  %g1, 0x10, %g1
 ab4:	c2 27 a0 44 	st  %g1, [ %fp + 0x44 ]
 ab8:	c2 07 a0 44 	ld  [ %fp + 0x44 ], %g1
 abc:	83 30 60 18 	srl  %g1, 0x18, %g1
 ac0:	80 a0 60 00 	cmp  %g1, 0
 ac4:	12 80 00 08 	bne  ae4 <CLZ+0x88>
 ac8:	01 00 00 00 	nop 
 acc:	c2 07 bf f4 	ld  [ %fp + -12 ], %g1
 ad0:	82 00 60 08 	add  %g1, 8, %g1
 ad4:	c2 27 bf f4 	st  %g1, [ %fp + -12 ]
 ad8:	c2 07 a0 44 	ld  [ %fp + 0x44 ], %g1
 adc:	83 28 60 08 	sll  %g1, 8, %g1
 ae0:	c2 27 a0 44 	st  %g1, [ %fp + 0x44 ]
 ae4:	c2 07 a0 44 	ld  [ %fp + 0x44 ], %g1
 ae8:	83 30 60 1c 	srl  %g1, 0x1c, %g1
 aec:	80 a0 60 00 	cmp  %g1, 0
 af0:	12 80 00 08 	bne  b10 <CLZ+0xb4>
 af4:	01 00 00 00 	nop 
 af8:	c2 07 bf f4 	ld  [ %fp + -12 ], %g1
 afc:	82 00 60 04 	add  %g1, 4, %g1
 b00:	c2 27 bf f4 	st  %g1, [ %fp + -12 ]
 b04:	c2 07 a0 44 	ld  [ %fp + 0x44 ], %g1
 b08:	83 28 60 04 	sll  %g1, 4, %g1
 b0c:	c2 27 a0 44 	st  %g1, [ %fp + 0x44 ]
 b10:	c2 07 a0 44 	ld  [ %fp + 0x44 ], %g1
 b14:	83 30 60 1e 	srl  %g1, 0x1e, %g1
 b18:	80 a0 60 00 	cmp  %g1, 0
 b1c:	12 80 00 08 	bne  b3c <CLZ+0xe0>
 b20:	01 00 00 00 	nop 
 b24:	c2 07 bf f4 	ld  [ %fp + -12 ], %g1
 b28:	82 00 60 02 	add  %g1, 2, %g1
 b2c:	c2 27 bf f4 	st  %g1, [ %fp + -12 ]
 b30:	c2 07 a0 44 	ld  [ %fp + 0x44 ], %g1
 b34:	83 28 60 02 	sll  %g1, 2, %g1
 b38:	c2 27 a0 44 	st  %g1, [ %fp + 0x44 ]
 b3c:	c2 07 a0 44 	ld  [ %fp + 0x44 ], %g1
 b40:	85 30 60 1f 	srl  %g1, 0x1f, %g2
 b44:	c2 07 bf f4 	ld  [ %fp + -12 ], %g1
 b48:	82 20 40 02 	sub  %g1, %g2, %g1
 b4c:	c2 27 bf f4 	st  %g1, [ %fp + -12 ]
 b50:	c2 07 bf f4 	ld  [ %fp + -12 ], %g1
 b54:	c2 27 bf f0 	st  %g1, [ %fp + -16 ]
 b58:	f0 07 bf f0 	ld  [ %fp + -16 ], %i0
 b5c:	81 c7 e0 08 	ret 
 b60:	81 e8 00 00 	restore 
