
tns.o:     file format elf32-sparc
tns.o

Disassembly of section .text:

00000000 <DecodeLPCCoefs-0x8>:
   0:	81 c3 e0 08 	retl 
   4:	ae 03 c0 17 	add  %o7, %l7, %l7

00000008 <DecodeLPCCoefs>:
   8:	9d e3 bf 88 	save  %sp, -120, %sp
   c:	2f 00 00 00 	sethi  %hi(0), %l7
  10:	7f ff ff fc 	call  0 <DecodeLPCCoefs-0x8>
  14:	ae 05 e0 00 	add  %l7, 0, %l7	! 0 <DecodeLPCCoefs-0x8>
  18:	f0 27 a0 44 	st  %i0, [ %fp + 0x44 ]
  1c:	f2 27 a0 48 	st  %i1, [ %fp + 0x48 ]
  20:	f4 27 a0 4c 	st  %i2, [ %fp + 0x4c ]
  24:	f6 27 a0 50 	st  %i3, [ %fp + 0x50 ]
  28:	f8 27 a0 54 	st  %i4, [ %fp + 0x54 ]
  2c:	c2 07 a0 48 	ld  [ %fp + 0x48 ], %g1
  30:	80 a0 60 03 	cmp  %g1, 3
  34:	12 80 00 08 	bne  54 <DecodeLPCCoefs+0x4c>
  38:	01 00 00 00 	nop 
  3c:	03 00 00 00 	sethi  %hi(0), %g1
  40:	82 10 60 00 	mov  %g1, %g1	! 0 <DecodeLPCCoefs-0x8>
  44:	c2 05 c0 01 	ld  [ %l7 + %g1 ], %g1
  48:	c2 27 bf e8 	st  %g1, [ %fp + -24 ]
  4c:	10 80 00 0a 	b  74 <DecodeLPCCoefs+0x6c>
  50:	01 00 00 00 	nop 
  54:	c2 07 a0 48 	ld  [ %fp + 0x48 ], %g1
  58:	80 a0 60 04 	cmp  %g1, 4
  5c:	12 80 00 60 	bne  1dc <DecodeLPCCoefs+0x1d4>
  60:	01 00 00 00 	nop 
  64:	03 00 00 00 	sethi  %hi(0), %g1
  68:	82 10 60 00 	mov  %g1, %g1	! 0 <DecodeLPCCoefs-0x8>
  6c:	c2 05 c0 01 	ld  [ %l7 + %g1 ], %g1
  70:	c2 27 bf e8 	st  %g1, [ %fp + -24 ]
  74:	c0 27 bf f0 	clr  [ %fp + -16 ]
  78:	c4 07 bf f0 	ld  [ %fp + -16 ], %g2
  7c:	c2 07 a0 44 	ld  [ %fp + 0x44 ], %g1
  80:	80 a0 80 01 	cmp  %g2, %g1
  84:	06 80 00 04 	bl  94 <DecodeLPCCoefs+0x8c>
  88:	01 00 00 00 	nop 
  8c:	10 80 00 54 	b  1dc <DecodeLPCCoefs+0x1d4>
  90:	01 00 00 00 	nop 
  94:	c4 07 a0 4c 	ld  [ %fp + 0x4c ], %g2
  98:	c2 07 bf f0 	ld  [ %fp + -16 ], %g1
  9c:	82 00 80 01 	add  %g2, %g1, %g1
  a0:	c2 08 40 00 	ldub  [ %g1 ], %g1
  a4:	82 08 60 ff 	and  %g1, 0xff, %g1
  a8:	82 08 60 0f 	and  %g1, 0xf, %g1
  ac:	85 28 60 02 	sll  %g1, 2, %g2
  b0:	c2 07 bf e8 	ld  [ %fp + -24 ], %g1
  b4:	82 00 80 01 	add  %g2, %g1, %g1
  b8:	c2 00 40 00 	ld  [ %g1 ], %g1
  bc:	c2 27 bf ec 	st  %g1, [ %fp + -20 ]
  c0:	c0 27 bf f4 	clr  [ %fp + -12 ]
  c4:	c4 07 bf f4 	ld  [ %fp + -12 ], %g2
  c8:	c2 07 bf f0 	ld  [ %fp + -16 ], %g1
  cc:	80 a0 80 01 	cmp  %g2, %g1
  d0:	06 80 00 04 	bl  e0 <DecodeLPCCoefs+0xd8>
  d4:	01 00 00 00 	nop 
  d8:	10 80 00 1e 	b  150 <DecodeLPCCoefs+0x148>
  dc:	01 00 00 00 	nop 
  e0:	c2 07 bf f4 	ld  [ %fp + -12 ], %g1
  e4:	85 28 60 02 	sll  %g1, 2, %g2
  e8:	c2 07 a0 54 	ld  [ %fp + 0x54 ], %g1
  ec:	a0 00 80 01 	add  %g2, %g1, %l0
  f0:	c2 07 bf f4 	ld  [ %fp + -12 ], %g1
  f4:	85 28 60 02 	sll  %g1, 2, %g2
  f8:	c2 07 a0 50 	ld  [ %fp + 0x50 ], %g1
  fc:	a2 00 80 01 	add  %g2, %g1, %l1
 100:	c4 07 bf f0 	ld  [ %fp + -16 ], %g2
 104:	c2 07 bf f4 	ld  [ %fp + -12 ], %g1
 108:	82 20 80 01 	sub  %g2, %g1, %g1
 10c:	85 28 60 02 	sll  %g1, 2, %g2
 110:	c2 07 a0 50 	ld  [ %fp + 0x50 ], %g1
 114:	82 00 80 01 	add  %g2, %g1, %g1
 118:	d0 07 bf ec 	ld  [ %fp + -20 ], %o0
 11c:	d2 00 7f fc 	ld  [ %g1 + -4 ], %o1
 120:	40 00 02 7c 	call  b10 <MULSHIFT32>
 124:	01 00 00 00 	nop 
 128:	82 10 00 08 	mov  %o0, %g1
 12c:	84 00 40 01 	add  %g1, %g1, %g2
 130:	c2 04 40 00 	ld  [ %l1 ], %g1
 134:	82 20 40 02 	sub  %g1, %g2, %g1
 138:	c2 24 00 00 	st  %g1, [ %l0 ]
 13c:	c2 07 bf f4 	ld  [ %fp + -12 ], %g1
 140:	82 00 60 01 	inc  %g1
 144:	c2 27 bf f4 	st  %g1, [ %fp + -12 ]
 148:	10 bf ff df 	b  c4 <DecodeLPCCoefs+0xbc>
 14c:	01 00 00 00 	nop 
 150:	c0 27 bf f4 	clr  [ %fp + -12 ]
 154:	c4 07 bf f4 	ld  [ %fp + -12 ], %g2
 158:	c2 07 bf f0 	ld  [ %fp + -16 ], %g1
 15c:	80 a0 80 01 	cmp  %g2, %g1
 160:	06 80 00 04 	bl  170 <DecodeLPCCoefs+0x168>
 164:	01 00 00 00 	nop 
 168:	10 80 00 11 	b  1ac <DecodeLPCCoefs+0x1a4>
 16c:	01 00 00 00 	nop 
 170:	c2 07 bf f4 	ld  [ %fp + -12 ], %g1
 174:	85 28 60 02 	sll  %g1, 2, %g2
 178:	c2 07 a0 50 	ld  [ %fp + 0x50 ], %g1
 17c:	86 00 80 01 	add  %g2, %g1, %g3
 180:	c2 07 bf f4 	ld  [ %fp + -12 ], %g1
 184:	85 28 60 02 	sll  %g1, 2, %g2
 188:	c2 07 a0 54 	ld  [ %fp + 0x54 ], %g1
 18c:	82 00 80 01 	add  %g2, %g1, %g1
 190:	c2 00 40 00 	ld  [ %g1 ], %g1
 194:	c2 20 c0 00 	st  %g1, [ %g3 ]
 198:	c2 07 bf f4 	ld  [ %fp + -12 ], %g1
 19c:	82 00 60 01 	inc  %g1
 1a0:	c2 27 bf f4 	st  %g1, [ %fp + -12 ]
 1a4:	10 bf ff ec 	b  154 <DecodeLPCCoefs+0x14c>
 1a8:	01 00 00 00 	nop 
 1ac:	c2 07 bf f0 	ld  [ %fp + -16 ], %g1
 1b0:	85 28 60 02 	sll  %g1, 2, %g2
 1b4:	c2 07 a0 50 	ld  [ %fp + 0x50 ], %g1
 1b8:	84 00 80 01 	add  %g2, %g1, %g2
 1bc:	c2 07 bf ec 	ld  [ %fp + -20 ], %g1
 1c0:	83 38 60 0b 	sra  %g1, 0xb, %g1
 1c4:	c2 20 80 00 	st  %g1, [ %g2 ]
 1c8:	c2 07 bf f0 	ld  [ %fp + -16 ], %g1
 1cc:	82 00 60 01 	inc  %g1
 1d0:	c2 27 bf f0 	st  %g1, [ %fp + -16 ]
 1d4:	10 bf ff a9 	b  78 <DecodeLPCCoefs+0x70>
 1d8:	01 00 00 00 	nop 
 1dc:	81 c7 e0 08 	ret 
 1e0:	81 e8 00 00 	restore 

000001e4 <FilterRegion>:
 1e4:	9d e3 bf 70 	save  %sp, -144, %sp
 1e8:	f0 27 a0 44 	st  %i0, [ %fp + 0x44 ]
 1ec:	f2 27 a0 48 	st  %i1, [ %fp + 0x48 ]
 1f0:	f4 27 a0 4c 	st  %i2, [ %fp + 0x4c ]
 1f4:	f6 27 a0 50 	st  %i3, [ %fp + 0x50 ]
 1f8:	f8 27 a0 54 	st  %i4, [ %fp + 0x54 ]
 1fc:	fa 27 a0 58 	st  %i5, [ %fp + 0x58 ]
 200:	c0 27 bf f4 	clr  [ %fp + -12 ]
 204:	c4 07 bf f4 	ld  [ %fp + -12 ], %g2
 208:	c2 07 a0 4c 	ld  [ %fp + 0x4c ], %g1
 20c:	80 a0 80 01 	cmp  %g2, %g1
 210:	06 80 00 04 	bl  220 <FilterRegion+0x3c>
 214:	01 00 00 00 	nop 
 218:	10 80 00 0c 	b  248 <FilterRegion+0x64>
 21c:	01 00 00 00 	nop 
 220:	c2 07 bf f4 	ld  [ %fp + -12 ], %g1
 224:	85 28 60 02 	sll  %g1, 2, %g2
 228:	c2 07 a0 58 	ld  [ %fp + 0x58 ], %g1
 22c:	82 00 80 01 	add  %g2, %g1, %g1
 230:	c0 20 40 00 	clr  [ %g1 ]
 234:	c2 07 bf f4 	ld  [ %fp + -12 ], %g1
 238:	82 00 60 01 	inc  %g1
 23c:	c2 27 bf f4 	st  %g1, [ %fp + -12 ]
 240:	10 bf ff f1 	b  204 <FilterRegion+0x20>
 244:	01 00 00 00 	nop 
 248:	84 10 20 00 	clr  %g2	! 0 <DecodeLPCCoefs-0x8>
 24c:	86 10 20 00 	clr  %g3
 250:	c4 3f bf d8 	std  %g2, [ %fp + -40 ]
 254:	c0 27 bf e0 	clr  [ %fp + -32 ]
 258:	c2 07 a0 48 	ld  [ %fp + 0x48 ], %g1
 25c:	80 a0 60 00 	cmp  %g1, 0
 260:	02 80 00 06 	be  278 <FilterRegion+0x94>
 264:	01 00 00 00 	nop 
 268:	82 10 3f ff 	mov  -1, %g1	! ffffffff <MADD64+0xfffff33b>
 26c:	c2 27 bf d4 	st  %g1, [ %fp + -44 ]
 270:	10 80 00 04 	b  280 <FilterRegion+0x9c>
 274:	01 00 00 00 	nop 
 278:	82 10 20 01 	mov  1, %g1	! 1 <DecodeLPCCoefs-0x7>
 27c:	c2 27 bf d4 	st  %g1, [ %fp + -44 ]
 280:	c2 07 bf d4 	ld  [ %fp + -44 ], %g1
 284:	c2 27 bf e4 	st  %g1, [ %fp + -28 ]
 288:	c2 07 a0 50 	ld  [ %fp + 0x50 ], %g1
 28c:	c2 00 40 00 	ld  [ %g1 ], %g1
 290:	c2 27 bf ec 	st  %g1, [ %fp + -20 ]
 294:	c2 07 bf ec 	ld  [ %fp + -20 ], %g1
 298:	83 38 60 0c 	sra  %g1, 0xc, %g1
 29c:	c2 27 bf dc 	st  %g1, [ %fp + -36 ]
 2a0:	c2 07 bf ec 	ld  [ %fp + -20 ], %g1
 2a4:	83 28 60 14 	sll  %g1, 0x14, %g1
 2a8:	c2 27 bf d8 	st  %g1, [ %fp + -40 ]
 2ac:	c2 07 a0 4c 	ld  [ %fp + 0x4c ], %g1
 2b0:	82 00 7f ff 	add  %g1, -1, %g1
 2b4:	c2 27 bf f0 	st  %g1, [ %fp + -16 ]
 2b8:	c2 07 bf f0 	ld  [ %fp + -16 ], %g1
 2bc:	80 a0 60 00 	cmp  %g1, 0
 2c0:	14 80 00 04 	bg  2d0 <FilterRegion+0xec>
 2c4:	01 00 00 00 	nop 
 2c8:	10 80 00 1f 	b  344 <FilterRegion+0x160>
 2cc:	01 00 00 00 	nop 
 2d0:	c2 07 bf f0 	ld  [ %fp + -16 ], %g1
 2d4:	85 28 60 02 	sll  %g1, 2, %g2
 2d8:	c2 07 a0 58 	ld  [ %fp + 0x58 ], %g1
 2dc:	86 00 80 01 	add  %g2, %g1, %g3
 2e0:	c2 07 bf f0 	ld  [ %fp + -16 ], %g1
 2e4:	85 28 60 02 	sll  %g1, 2, %g2
 2e8:	c2 07 a0 54 	ld  [ %fp + 0x54 ], %g1
 2ec:	82 00 80 01 	add  %g2, %g1, %g1
 2f0:	d0 1f bf d8 	ldd  [ %fp + -40 ], %o0
 2f4:	d4 00 c0 00 	ld  [ %g3 ], %o2
 2f8:	d6 00 40 00 	ld  [ %g1 ], %o3
 2fc:	40 00 02 72 	call  cc4 <MADD64>
 300:	01 00 00 00 	nop 
 304:	d0 3f bf d8 	std  %o0, [ %fp + -40 ]
 308:	c2 07 bf f0 	ld  [ %fp + -16 ], %g1
 30c:	85 28 60 02 	sll  %g1, 2, %g2
 310:	c2 07 a0 58 	ld  [ %fp + 0x58 ], %g1
 314:	86 00 80 01 	add  %g2, %g1, %g3
 318:	c2 07 bf f0 	ld  [ %fp + -16 ], %g1
 31c:	85 28 60 02 	sll  %g1, 2, %g2
 320:	c2 07 a0 58 	ld  [ %fp + 0x58 ], %g1
 324:	82 00 80 01 	add  %g2, %g1, %g1
 328:	c2 00 7f fc 	ld  [ %g1 + -4 ], %g1
 32c:	c2 20 c0 00 	st  %g1, [ %g3 ]
 330:	c2 07 bf f0 	ld  [ %fp + -16 ], %g1
 334:	82 00 7f ff 	add  %g1, -1, %g1
 338:	c2 27 bf f0 	st  %g1, [ %fp + -16 ]
 33c:	10 bf ff df 	b  2b8 <FilterRegion+0xd4>
 340:	01 00 00 00 	nop 
 344:	c2 07 a0 58 	ld  [ %fp + 0x58 ], %g1
 348:	c4 07 a0 54 	ld  [ %fp + 0x54 ], %g2
 34c:	d0 1f bf d8 	ldd  [ %fp + -40 ], %o0
 350:	d4 00 40 00 	ld  [ %g1 ], %o2
 354:	d6 00 80 00 	ld  [ %g2 ], %o3
 358:	40 00 02 5b 	call  cc4 <MADD64>
 35c:	01 00 00 00 	nop 
 360:	d0 3f bf d8 	std  %o0, [ %fp + -40 ]
 364:	c2 07 bf dc 	ld  [ %fp + -36 ], %g1
 368:	85 28 60 0c 	sll  %g1, 0xc, %g2
 36c:	c2 07 bf d8 	ld  [ %fp + -40 ], %g1
 370:	83 30 60 14 	srl  %g1, 0x14, %g1
 374:	82 10 80 01 	or  %g2, %g1, %g1
 378:	c2 27 bf ec 	st  %g1, [ %fp + -20 ]
 37c:	c2 07 bf dc 	ld  [ %fp + -36 ], %g1
 380:	c2 27 bf e8 	st  %g1, [ %fp + -24 ]
 384:	c2 07 bf e8 	ld  [ %fp + -24 ], %g1
 388:	85 38 60 1f 	sra  %g1, 0x1f, %g2
 38c:	c2 07 bf e8 	ld  [ %fp + -24 ], %g1
 390:	83 38 60 13 	sra  %g1, 0x13, %g1
 394:	80 a0 80 01 	cmp  %g2, %g1
 398:	02 80 00 08 	be  3b8 <FilterRegion+0x1d4>
 39c:	01 00 00 00 	nop 
 3a0:	c2 07 bf e8 	ld  [ %fp + -24 ], %g1
 3a4:	85 38 60 1f 	sra  %g1, 0x1f, %g2
 3a8:	03 1f ff ff 	sethi  %hi(0x7ffffc00), %g1
 3ac:	82 10 63 ff 	or  %g1, 0x3ff, %g1	! 7fffffff <MADD64+0x7ffff33b>
 3b0:	82 18 80 01 	xor  %g2, %g1, %g1
 3b4:	c2 27 bf ec 	st  %g1, [ %fp + -20 ]
 3b8:	c4 07 a0 58 	ld  [ %fp + 0x58 ], %g2
 3bc:	c2 07 bf ec 	ld  [ %fp + -20 ], %g1
 3c0:	c2 20 80 00 	st  %g1, [ %g2 ]
 3c4:	c4 07 a0 50 	ld  [ %fp + 0x50 ], %g2
 3c8:	c2 07 bf ec 	ld  [ %fp + -20 ], %g1
 3cc:	c2 20 80 00 	st  %g1, [ %g2 ]
 3d0:	c2 07 bf e4 	ld  [ %fp + -28 ], %g1
 3d4:	85 28 60 02 	sll  %g1, 2, %g2
 3d8:	c2 07 a0 50 	ld  [ %fp + 0x50 ], %g1
 3dc:	82 00 40 02 	add  %g1, %g2, %g1
 3e0:	c2 27 a0 50 	st  %g1, [ %fp + 0x50 ]
 3e4:	d0 07 bf ec 	ld  [ %fp + -20 ], %o0
 3e8:	40 00 01 e4 	call  b78 <FASTABS>
 3ec:	01 00 00 00 	nop 
 3f0:	84 10 00 08 	mov  %o0, %g2
 3f4:	c2 07 bf e0 	ld  [ %fp + -32 ], %g1
 3f8:	82 10 40 02 	or  %g1, %g2, %g1
 3fc:	c2 27 bf e0 	st  %g1, [ %fp + -32 ]
 400:	c2 07 a0 44 	ld  [ %fp + 0x44 ], %g1
 404:	82 00 7f ff 	add  %g1, -1, %g1
 408:	c2 27 a0 44 	st  %g1, [ %fp + 0x44 ]
 40c:	80 a0 60 00 	cmp  %g1, 0
 410:	12 bf ff 9e 	bne  288 <FilterRegion+0xa4>
 414:	01 00 00 00 	nop 
 418:	c2 07 bf e0 	ld  [ %fp + -32 ], %g1
 41c:	b0 10 00 01 	mov  %g1, %i0
 420:	81 c7 e0 08 	ret 
 424:	81 e8 00 00 	restore 

00000428 <raac_TNSFilter>:
 428:	9d e3 bf 08 	save  %sp, -248, %sp
 42c:	2f 00 00 00 	sethi  %hi(0), %l7
 430:	7f ff fe f4 	call  0 <DecodeLPCCoefs-0x8>
 434:	ae 05 e0 00 	add  %l7, 0, %l7	! 0 <DecodeLPCCoefs-0x8>
 438:	f0 27 a0 44 	st  %i0, [ %fp + 0x44 ]
 43c:	f2 27 a0 48 	st  %i1, [ %fp + 0x48 ]
 440:	c2 07 a0 44 	ld  [ %fp + 0x44 ], %g1
 444:	80 a0 60 00 	cmp  %g1, 0
 448:	02 80 00 07 	be  464 <raac_TNSFilter+0x3c>
 44c:	01 00 00 00 	nop 
 450:	c2 07 a0 44 	ld  [ %fp + 0x44 ], %g1
 454:	c2 00 40 00 	ld  [ %g1 ], %g1
 458:	80 a0 60 00 	cmp  %g1, 0
 45c:	12 80 00 06 	bne  474 <raac_TNSFilter+0x4c>
 460:	01 00 00 00 	nop 
 464:	82 10 3f ff 	mov  -1, %g1	! ffffffff <MADD64+0xfffff33b>
 468:	c2 27 bf 88 	st  %g1, [ %fp + -120 ]
 46c:	10 80 01 a6 	b  b04 <raac_TNSFilter+0x6dc>
 470:	01 00 00 00 	nop 
 474:	c2 07 a0 44 	ld  [ %fp + 0x44 ], %g1
 478:	c2 00 40 00 	ld  [ %g1 ], %g1
 47c:	c2 27 bf 8c 	st  %g1, [ %fp + -116 ]
 480:	c2 07 a0 48 	ld  [ %fp + 0x48 ], %g1
 484:	80 a0 60 01 	cmp  %g1, 1
 488:	12 80 00 0c 	bne  4b8 <raac_TNSFilter+0x90>
 48c:	01 00 00 00 	nop 
 490:	c2 07 bf 8c 	ld  [ %fp + -116 ], %g1
 494:	c2 00 68 f0 	ld  [ %g1 + 0x8f0 ], %g1
 498:	80 a0 60 01 	cmp  %g1, 1
 49c:	12 80 00 07 	bne  4b8 <raac_TNSFilter+0x90>
 4a0:	01 00 00 00 	nop 
 4a4:	c2 07 bf 8c 	ld  [ %fp + -116 ], %g1
 4a8:	82 00 68 7c 	add  %g1, 0x87c, %g1
 4ac:	c2 27 bf 84 	st  %g1, [ %fp + -124 ]
 4b0:	10 80 00 0f 	b  4ec <raac_TNSFilter+0xc4>
 4b4:	01 00 00 00 	nop 
 4b8:	c4 07 a0 48 	ld  [ %fp + 0x48 ], %g2
 4bc:	82 10 00 02 	mov  %g2, %g1
 4c0:	83 28 60 03 	sll  %g1, 3, %g1
 4c4:	82 20 40 02 	sub  %g1, %g2, %g1
 4c8:	83 28 60 02 	sll  %g1, 2, %g1
 4cc:	82 00 40 02 	add  %g1, %g2, %g1
 4d0:	84 00 40 01 	add  %g1, %g1, %g2
 4d4:	c2 07 bf 8c 	ld  [ %fp + -116 ], %g1
 4d8:	84 00 80 01 	add  %g2, %g1, %g2
 4dc:	c4 27 bf 84 	st  %g2, [ %fp + -124 ]
 4e0:	c4 07 bf 84 	ld  [ %fp + -124 ], %g2
 4e4:	84 00 a8 7c 	add  %g2, 0x87c, %g2
 4e8:	c4 27 bf 84 	st  %g2, [ %fp + -124 ]
 4ec:	c2 07 bf 84 	ld  [ %fp + -124 ], %g1
 4f0:	c2 27 bf 94 	st  %g1, [ %fp + -108 ]
 4f4:	c4 07 a0 48 	ld  [ %fp + 0x48 ], %g2
 4f8:	82 10 00 02 	mov  %g2, %g1
 4fc:	82 00 40 01 	add  %g1, %g1, %g1
 500:	82 00 40 02 	add  %g1, %g2, %g1
 504:	83 28 60 03 	sll  %g1, 3, %g1
 508:	82 00 40 02 	add  %g1, %g2, %g1
 50c:	83 28 60 02 	sll  %g1, 2, %g1
 510:	82 00 40 02 	add  %g1, %g2, %g1
 514:	c4 07 bf 8c 	ld  [ %fp + -116 ], %g2
 518:	82 00 40 02 	add  %g1, %g2, %g1
 51c:	82 00 6c 02 	add  %g1, 0xc02, %g1
 520:	c2 27 bf 90 	st  %g1, [ %fp + -112 ]
 524:	c2 07 bf 90 	ld  [ %fp + -112 ], %g1
 528:	c2 08 40 00 	ldub  [ %g1 ], %g1
 52c:	82 08 60 ff 	and  %g1, 0xff, %g1
 530:	80 a0 60 00 	cmp  %g1, 0
 534:	12 80 00 05 	bne  548 <raac_TNSFilter+0x120>
 538:	01 00 00 00 	nop 
 53c:	c0 27 bf 88 	clr  [ %fp + -120 ]
 540:	10 80 01 71 	b  b04 <raac_TNSFilter+0x6dc>
 544:	01 00 00 00 	nop 
 548:	c2 07 bf 94 	ld  [ %fp + -108 ], %g1
 54c:	c2 08 60 01 	ldub  [ %g1 + 1 ], %g1
 550:	82 08 60 ff 	and  %g1, 0xff, %g1
 554:	80 a0 60 02 	cmp  %g1, 2
 558:	12 80 00 3b 	bne  644 <raac_TNSFilter+0x21c>
 55c:	01 00 00 00 	nop 
 560:	82 10 20 08 	mov  8, %g1	! 8 <DecodeLPCCoefs>
 564:	c2 27 bf ec 	st  %g1, [ %fp + -20 ]
 568:	82 10 20 80 	mov  0x80, %g1
 56c:	c2 27 bf f0 	st  %g1, [ %fp + -16 ]
 570:	03 00 00 00 	sethi  %hi(0), %g1
 574:	82 10 60 00 	mov  %g1, %g1	! 0 <DecodeLPCCoefs-0x8>
 578:	c4 05 c0 01 	ld  [ %l7 + %g1 ], %g2
 57c:	c2 07 bf 8c 	ld  [ %fp + -116 ], %g1
 580:	c2 00 68 78 	ld  [ %g1 + 0x878 ], %g1
 584:	82 00 80 01 	add  %g2, %g1, %g1
 588:	c2 08 40 00 	ldub  [ %g1 ], %g1
 58c:	82 08 60 ff 	and  %g1, 0xff, %g1
 590:	c2 27 bf e8 	st  %g1, [ %fp + -24 ]
 594:	03 00 00 00 	sethi  %hi(0), %g1
 598:	82 10 60 00 	mov  %g1, %g1	! 0 <DecodeLPCCoefs-0x8>
 59c:	c4 05 c0 01 	ld  [ %l7 + %g1 ], %g2
 5a0:	c2 07 a0 44 	ld  [ %fp + 0x44 ], %g1
 5a4:	c2 00 60 48 	ld  [ %g1 + 0x48 ], %g1
 5a8:	82 00 80 01 	add  %g2, %g1, %g1
 5ac:	c2 08 40 00 	ldub  [ %g1 ], %g1
 5b0:	82 08 60 ff 	and  %g1, 0xff, %g1
 5b4:	c2 27 bf d4 	st  %g1, [ %fp + -44 ]
 5b8:	03 00 00 00 	sethi  %hi(0), %g1
 5bc:	82 10 60 00 	mov  %g1, %g1	! 0 <DecodeLPCCoefs-0x8>
 5c0:	c4 05 c0 01 	ld  [ %l7 + %g1 ], %g2
 5c4:	c2 07 bf 8c 	ld  [ %fp + -116 ], %g1
 5c8:	c2 00 68 78 	ld  [ %g1 + 0x878 ], %g1
 5cc:	83 28 60 02 	sll  %g1, 2, %g1
 5d0:	c2 00 80 01 	ld  [ %g2 + %g1 ], %g1
 5d4:	84 00 40 01 	add  %g1, %g1, %g2
 5d8:	03 00 00 00 	sethi  %hi(0), %g1
 5dc:	82 10 60 00 	mov  %g1, %g1	! 0 <DecodeLPCCoefs-0x8>
 5e0:	c2 05 c0 01 	ld  [ %l7 + %g1 ], %g1
 5e4:	82 00 40 02 	add  %g1, %g2, %g1
 5e8:	c2 27 bf 98 	st  %g1, [ %fp + -104 ]
 5ec:	03 00 00 00 	sethi  %hi(0), %g1
 5f0:	82 10 60 00 	mov  %g1, %g1	! 0 <DecodeLPCCoefs-0x8>
 5f4:	c8 05 c0 01 	ld  [ %l7 + %g1 ], %g4
 5f8:	c2 07 a0 44 	ld  [ %fp + 0x44 ], %g1
 5fc:	c2 00 60 48 	ld  [ %g1 + 0x48 ], %g1
 600:	87 28 60 02 	sll  %g1, 2, %g3
 604:	03 00 00 00 	sethi  %hi(0), %g1
 608:	82 10 60 00 	mov  %g1, %g1	! 0 <DecodeLPCCoefs-0x8>
 60c:	c2 05 c0 01 	ld  [ %l7 + %g1 ], %g1
 610:	84 10 00 01 	mov  %g1, %g2
 614:	c2 01 00 03 	ld  [ %g4 + %g3 ], %g1
 618:	82 00 80 01 	add  %g2, %g1, %g1
 61c:	c2 27 bf 9c 	st  %g1, [ %fp + -100 ]
 620:	c2 07 bf 8c 	ld  [ %fp + -116 ], %g1
 624:	c4 07 bf 9c 	ld  [ %fp + -100 ], %g2
 628:	c2 00 68 78 	ld  [ %g1 + 0x878 ], %g1
 62c:	82 00 80 01 	add  %g2, %g1, %g1
 630:	c2 08 40 00 	ldub  [ %g1 ], %g1
 634:	82 08 60 ff 	and  %g1, 0xff, %g1
 638:	c2 27 bf c0 	st  %g1, [ %fp + -64 ]
 63c:	10 80 00 39 	b  720 <raac_TNSFilter+0x2f8>
 640:	01 00 00 00 	nop 
 644:	82 10 20 01 	mov  1, %g1	! 1 <DecodeLPCCoefs-0x7>
 648:	c2 27 bf ec 	st  %g1, [ %fp + -20 ]
 64c:	82 10 24 00 	mov  0x400, %g1
 650:	c2 27 bf f0 	st  %g1, [ %fp + -16 ]
 654:	03 00 00 00 	sethi  %hi(0), %g1
 658:	82 10 60 00 	mov  %g1, %g1	! 0 <DecodeLPCCoefs-0x8>
 65c:	c4 05 c0 01 	ld  [ %l7 + %g1 ], %g2
 660:	c2 07 bf 8c 	ld  [ %fp + -116 ], %g1
 664:	c2 00 68 78 	ld  [ %g1 + 0x878 ], %g1
 668:	82 00 80 01 	add  %g2, %g1, %g1
 66c:	c2 08 40 00 	ldub  [ %g1 ], %g1
 670:	82 08 60 ff 	and  %g1, 0xff, %g1
 674:	c2 27 bf e8 	st  %g1, [ %fp + -24 ]
 678:	03 00 00 00 	sethi  %hi(0), %g1
 67c:	82 10 60 00 	mov  %g1, %g1	! 0 <DecodeLPCCoefs-0x8>
 680:	c4 05 c0 01 	ld  [ %l7 + %g1 ], %g2
 684:	c2 07 a0 44 	ld  [ %fp + 0x44 ], %g1
 688:	c2 00 60 48 	ld  [ %g1 + 0x48 ], %g1
 68c:	82 00 80 01 	add  %g2, %g1, %g1
 690:	c2 08 40 00 	ldub  [ %g1 ], %g1
 694:	82 08 60 ff 	and  %g1, 0xff, %g1
 698:	c2 27 bf d4 	st  %g1, [ %fp + -44 ]
 69c:	03 00 00 00 	sethi  %hi(0), %g1
 6a0:	82 10 60 00 	mov  %g1, %g1	! 0 <DecodeLPCCoefs-0x8>
 6a4:	c4 05 c0 01 	ld  [ %l7 + %g1 ], %g2
 6a8:	c2 07 bf 8c 	ld  [ %fp + -116 ], %g1
 6ac:	c2 00 68 78 	ld  [ %g1 + 0x878 ], %g1
 6b0:	83 28 60 02 	sll  %g1, 2, %g1
 6b4:	c2 00 80 01 	ld  [ %g2 + %g1 ], %g1
 6b8:	84 00 40 01 	add  %g1, %g1, %g2
 6bc:	03 00 00 00 	sethi  %hi(0), %g1
 6c0:	82 10 60 00 	mov  %g1, %g1	! 0 <DecodeLPCCoefs-0x8>
 6c4:	c2 05 c0 01 	ld  [ %l7 + %g1 ], %g1
 6c8:	82 00 40 02 	add  %g1, %g2, %g1
 6cc:	c2 27 bf 98 	st  %g1, [ %fp + -104 ]
 6d0:	03 00 00 00 	sethi  %hi(0), %g1
 6d4:	82 10 60 00 	mov  %g1, %g1	! 0 <DecodeLPCCoefs-0x8>
 6d8:	c8 05 c0 01 	ld  [ %l7 + %g1 ], %g4
 6dc:	c2 07 a0 44 	ld  [ %fp + 0x44 ], %g1
 6e0:	c2 00 60 48 	ld  [ %g1 + 0x48 ], %g1
 6e4:	87 28 60 02 	sll  %g1, 2, %g3
 6e8:	03 00 00 00 	sethi  %hi(0), %g1
 6ec:	82 10 60 00 	mov  %g1, %g1	! 0 <DecodeLPCCoefs-0x8>
 6f0:	c2 05 c0 01 	ld  [ %l7 + %g1 ], %g1
 6f4:	84 10 00 01 	mov  %g1, %g2
 6f8:	c2 01 00 03 	ld  [ %g4 + %g3 ], %g1
 6fc:	82 00 80 01 	add  %g2, %g1, %g1
 700:	c2 27 bf 9c 	st  %g1, [ %fp + -100 ]
 704:	c2 07 bf 8c 	ld  [ %fp + -116 ], %g1
 708:	c4 07 bf 9c 	ld  [ %fp + -100 ], %g2
 70c:	c2 00 68 78 	ld  [ %g1 + 0x878 ], %g1
 710:	82 00 80 01 	add  %g2, %g1, %g1
 714:	c2 08 40 00 	ldub  [ %g1 ], %g1
 718:	82 08 60 ff 	and  %g1, 0xff, %g1
 71c:	c2 27 bf c0 	st  %g1, [ %fp + -64 ]
 720:	c2 07 bf 94 	ld  [ %fp + -108 ], %g1
 724:	c2 08 60 03 	ldub  [ %g1 + 3 ], %g1
 728:	84 08 60 ff 	and  %g1, 0xff, %g2
 72c:	c2 07 bf c0 	ld  [ %fp + -64 ], %g1
 730:	80 a0 40 02 	cmp  %g1, %g2
 734:	04 80 00 06 	ble  74c <raac_TNSFilter+0x324>
 738:	01 00 00 00 	nop 
 73c:	c2 07 bf 94 	ld  [ %fp + -108 ], %g1
 740:	c2 08 60 03 	ldub  [ %g1 + 3 ], %g1
 744:	82 08 60 ff 	and  %g1, 0xff, %g1
 748:	c2 27 bf c0 	st  %g1, [ %fp + -64 ]
 74c:	c2 07 bf 90 	ld  [ %fp + -112 ], %g1
 750:	82 00 60 09 	add  %g1, 9, %g1
 754:	c2 27 bf a8 	st  %g1, [ %fp + -88 ]
 758:	c2 07 bf 90 	ld  [ %fp + -112 ], %g1
 75c:	82 00 60 11 	add  %g1, 0x11, %g1
 760:	c2 27 bf b0 	st  %g1, [ %fp + -80 ]
 764:	c2 07 bf 90 	ld  [ %fp + -112 ], %g1
 768:	82 00 60 19 	add  %g1, 0x19, %g1
 76c:	c2 27 bf ac 	st  %g1, [ %fp + -84 ]
 770:	c2 07 bf 90 	ld  [ %fp + -112 ], %g1
 774:	82 00 60 21 	add  %g1, 0x21, %g1
 778:	c2 27 bf a4 	st  %g1, [ %fp + -92 ]
 77c:	c2 07 bf 90 	ld  [ %fp + -112 ], %g1
 780:	82 00 60 29 	add  %g1, 0x29, %g1
 784:	c2 27 bf a0 	st  %g1, [ %fp + -96 ]
 788:	c0 27 bf b8 	clr  [ %fp + -72 ]
 78c:	c2 07 a0 48 	ld  [ %fp + 0x48 ], %g1
 790:	85 28 60 0c 	sll  %g1, 0xc, %g2
 794:	c2 07 bf 8c 	ld  [ %fp + -116 ], %g1
 798:	84 00 80 01 	add  %g2, %g1, %g2
 79c:	03 00 00 04 	sethi  %hi(0x1000), %g1
 7a0:	82 10 60 48 	or  %g1, 0x48, %g1	! 1048 <MADD64+0x384>
 7a4:	82 00 80 01 	add  %g2, %g1, %g1
 7a8:	c2 27 bf b4 	st  %g1, [ %fp + -76 ]
 7ac:	c0 27 bf f4 	clr  [ %fp + -12 ]
 7b0:	c4 07 bf f4 	ld  [ %fp + -12 ], %g2
 7b4:	c2 07 bf ec 	ld  [ %fp + -20 ], %g1
 7b8:	80 a0 80 01 	cmp  %g2, %g1
 7bc:	06 80 00 04 	bl  7cc <raac_TNSFilter+0x3a4>
 7c0:	01 00 00 00 	nop 
 7c4:	10 80 00 b4 	b  a94 <raac_TNSFilter+0x66c>
 7c8:	01 00 00 00 	nop 
 7cc:	c2 07 bf e8 	ld  [ %fp + -24 ], %g1
 7d0:	c2 27 bf e0 	st  %g1, [ %fp + -32 ]
 7d4:	c4 07 bf 90 	ld  [ %fp + -112 ], %g2
 7d8:	c2 07 bf f4 	ld  [ %fp + -12 ], %g1
 7dc:	82 00 80 01 	add  %g2, %g1, %g1
 7e0:	c2 08 60 01 	ldub  [ %g1 + 1 ], %g1
 7e4:	82 08 60 ff 	and  %g1, 0xff, %g1
 7e8:	c2 27 bf bc 	st  %g1, [ %fp + -68 ]
 7ec:	c0 27 bf e4 	clr  [ %fp + -28 ]
 7f0:	c4 07 bf e4 	ld  [ %fp + -28 ], %g2
 7f4:	c2 07 bf bc 	ld  [ %fp + -68 ], %g1
 7f8:	80 a0 80 01 	cmp  %g2, %g1
 7fc:	06 80 00 04 	bl  80c <raac_TNSFilter+0x3e4>
 800:	01 00 00 00 	nop 
 804:	10 80 00 9a 	b  a6c <raac_TNSFilter+0x644>
 808:	01 00 00 00 	nop 
 80c:	c2 07 bf e0 	ld  [ %fp + -32 ], %g1
 810:	c2 27 bf dc 	st  %g1, [ %fp + -36 ]
 814:	88 07 bf b0 	add  %fp, -80, %g4
 818:	c4 01 00 00 	ld  [ %g4 ], %g2
 81c:	82 10 00 02 	mov  %g2, %g1
 820:	c2 08 40 00 	ldub  [ %g1 ], %g1
 824:	86 08 60 ff 	and  %g1, 0xff, %g3
 828:	c2 07 bf dc 	ld  [ %fp + -36 ], %g1
 82c:	82 20 40 03 	sub  %g1, %g3, %g1
 830:	84 00 a0 01 	inc  %g2
 834:	c4 21 00 00 	st  %g2, [ %g4 ]
 838:	c2 27 bf e0 	st  %g1, [ %fp + -32 ]
 83c:	c4 07 bf e0 	ld  [ %fp + -32 ], %g2
 840:	c4 27 bf 80 	st  %g2, [ %fp + -128 ]
 844:	c2 07 bf 80 	ld  [ %fp + -128 ], %g1
 848:	80 a0 60 00 	cmp  %g1, 0
 84c:	16 80 00 03 	bge  858 <raac_TNSFilter+0x430>
 850:	01 00 00 00 	nop 
 854:	c0 27 bf 80 	clr  [ %fp + -128 ]
 858:	c4 07 bf 80 	ld  [ %fp + -128 ], %g2
 85c:	c4 27 bf e0 	st  %g2, [ %fp + -32 ]
 860:	86 07 bf ac 	add  %fp, -84, %g3
 864:	c4 00 c0 00 	ld  [ %g3 ], %g2
 868:	82 10 00 02 	mov  %g2, %g1
 86c:	c2 08 40 00 	ldub  [ %g1 ], %g1
 870:	82 08 60 ff 	and  %g1, 0xff, %g1
 874:	c2 27 bf d8 	st  %g1, [ %fp + -40 ]
 878:	84 00 a0 01 	inc  %g2
 87c:	c4 20 c0 00 	st  %g2, [ %g3 ]
 880:	c2 07 bf d8 	ld  [ %fp + -40 ], %g1
 884:	c2 27 bf 78 	st  %g1, [ %fp + -136 ]
 888:	c4 07 bf d4 	ld  [ %fp + -44 ], %g2
 88c:	c4 27 bf 7c 	st  %g2, [ %fp + -132 ]
 890:	c2 07 bf 7c 	ld  [ %fp + -132 ], %g1
 894:	c4 07 bf 78 	ld  [ %fp + -136 ], %g2
 898:	80 a0 40 02 	cmp  %g1, %g2
 89c:	04 80 00 04 	ble  8ac <raac_TNSFilter+0x484>
 8a0:	01 00 00 00 	nop 
 8a4:	c2 07 bf 78 	ld  [ %fp + -136 ], %g1
 8a8:	c2 27 bf 7c 	st  %g1, [ %fp + -132 ]
 8ac:	c4 07 bf 7c 	ld  [ %fp + -132 ], %g2
 8b0:	c4 27 bf d8 	st  %g2, [ %fp + -40 ]
 8b4:	c2 07 bf d8 	ld  [ %fp + -40 ], %g1
 8b8:	80 a0 60 00 	cmp  %g1, 0
 8bc:	02 80 00 67 	be  a58 <raac_TNSFilter+0x630>
 8c0:	01 00 00 00 	nop 
 8c4:	c2 07 bf e0 	ld  [ %fp + -32 ], %g1
 8c8:	c2 27 bf 70 	st  %g1, [ %fp + -144 ]
 8cc:	c4 07 bf c0 	ld  [ %fp + -64 ], %g2
 8d0:	c4 27 bf 74 	st  %g2, [ %fp + -140 ]
 8d4:	c2 07 bf 74 	ld  [ %fp + -140 ], %g1
 8d8:	c4 07 bf 70 	ld  [ %fp + -144 ], %g2
 8dc:	80 a0 40 02 	cmp  %g1, %g2
 8e0:	04 80 00 04 	ble  8f0 <raac_TNSFilter+0x4c8>
 8e4:	01 00 00 00 	nop 
 8e8:	c2 07 bf 70 	ld  [ %fp + -144 ], %g1
 8ec:	c2 27 bf 74 	st  %g1, [ %fp + -140 ]
 8f0:	c2 07 bf 74 	ld  [ %fp + -140 ], %g1
 8f4:	84 00 40 01 	add  %g1, %g1, %g2
 8f8:	c2 07 bf 98 	ld  [ %fp + -104 ], %g1
 8fc:	82 00 80 01 	add  %g2, %g1, %g1
 900:	c2 10 40 00 	lduh  [ %g1 ], %g1
 904:	83 28 60 10 	sll  %g1, 0x10, %g1
 908:	83 38 60 10 	sra  %g1, 0x10, %g1
 90c:	c2 27 bf cc 	st  %g1, [ %fp + -52 ]
 910:	c4 07 bf dc 	ld  [ %fp + -36 ], %g2
 914:	c4 27 bf 68 	st  %g2, [ %fp + -152 ]
 918:	c2 07 bf c0 	ld  [ %fp + -64 ], %g1
 91c:	c2 27 bf 6c 	st  %g1, [ %fp + -148 ]
 920:	c4 07 bf 6c 	ld  [ %fp + -148 ], %g2
 924:	c2 07 bf 68 	ld  [ %fp + -152 ], %g1
 928:	80 a0 80 01 	cmp  %g2, %g1
 92c:	04 80 00 04 	ble  93c <raac_TNSFilter+0x514>
 930:	01 00 00 00 	nop 
 934:	c4 07 bf 68 	ld  [ %fp + -152 ], %g2
 938:	c4 27 bf 6c 	st  %g2, [ %fp + -148 ]
 93c:	c2 07 bf 6c 	ld  [ %fp + -148 ], %g1
 940:	84 00 40 01 	add  %g1, %g1, %g2
 944:	c2 07 bf 98 	ld  [ %fp + -104 ], %g1
 948:	82 00 80 01 	add  %g2, %g1, %g1
 94c:	c2 10 40 00 	lduh  [ %g1 ], %g1
 950:	83 28 60 10 	sll  %g1, 0x10, %g1
 954:	83 38 60 10 	sra  %g1, 0x10, %g1
 958:	c2 27 bf c8 	st  %g1, [ %fp + -56 ]
 95c:	c4 07 bf c8 	ld  [ %fp + -56 ], %g2
 960:	c2 07 bf cc 	ld  [ %fp + -52 ], %g1
 964:	82 20 80 01 	sub  %g2, %g1, %g1
 968:	c2 27 bf c4 	st  %g1, [ %fp + -60 ]
 96c:	c2 07 bf c4 	ld  [ %fp + -60 ], %g1
 970:	80 a0 60 00 	cmp  %g1, 0
 974:	04 80 00 35 	ble  a48 <raac_TNSFilter+0x620>
 978:	01 00 00 00 	nop 
 97c:	86 07 bf a4 	add  %fp, -92, %g3
 980:	c4 00 c0 00 	ld  [ %g3 ], %g2
 984:	82 10 00 02 	mov  %g2, %g1
 988:	c2 08 40 00 	ldub  [ %g1 ], %g1
 98c:	82 08 60 ff 	and  %g1, 0xff, %g1
 990:	c2 27 bf d0 	st  %g1, [ %fp + -48 ]
 994:	84 00 a0 01 	inc  %g2
 998:	c4 20 c0 00 	st  %g2, [ %g3 ]
 99c:	c2 07 bf d0 	ld  [ %fp + -48 ], %g1
 9a0:	80 a0 60 00 	cmp  %g1, 0
 9a4:	02 80 00 05 	be  9b8 <raac_TNSFilter+0x590>
 9a8:	01 00 00 00 	nop 
 9ac:	c2 07 bf c8 	ld  [ %fp + -56 ], %g1
 9b0:	82 00 7f ff 	add  %g1, -1, %g1
 9b4:	c2 27 bf cc 	st  %g1, [ %fp + -52 ]
 9b8:	c4 07 bf a8 	ld  [ %fp + -88 ], %g2
 9bc:	c2 07 bf f4 	ld  [ %fp + -12 ], %g1
 9c0:	82 00 80 01 	add  %g2, %g1, %g1
 9c4:	c2 08 40 00 	ldub  [ %g1 ], %g1
 9c8:	84 08 60 ff 	and  %g1, 0xff, %g2
 9cc:	c2 07 bf 8c 	ld  [ %fp + -116 ], %g1
 9d0:	86 00 6c cc 	add  %g1, 0xccc, %g3
 9d4:	c2 07 bf 8c 	ld  [ %fp + -116 ], %g1
 9d8:	82 00 6d 1c 	add  %g1, 0xd1c, %g1
 9dc:	d0 07 bf d8 	ld  [ %fp + -40 ], %o0
 9e0:	92 10 00 02 	mov  %g2, %o1
 9e4:	d4 07 bf a0 	ld  [ %fp + -96 ], %o2
 9e8:	96 10 00 03 	mov  %g3, %o3
 9ec:	98 10 00 01 	mov  %g1, %o4
 9f0:	7f ff fd 86 	call  8 <DecodeLPCCoefs>
 9f4:	01 00 00 00 	nop 
 9f8:	c2 07 bf cc 	ld  [ %fp + -52 ], %g1
 9fc:	85 28 60 02 	sll  %g1, 2, %g2
 a00:	c2 07 bf b4 	ld  [ %fp + -76 ], %g1
 a04:	84 00 80 01 	add  %g2, %g1, %g2
 a08:	c2 07 bf 8c 	ld  [ %fp + -116 ], %g1
 a0c:	86 00 6c cc 	add  %g1, 0xccc, %g3
 a10:	c2 07 bf 8c 	ld  [ %fp + -116 ], %g1
 a14:	82 00 6d 1c 	add  %g1, 0xd1c, %g1
 a18:	d0 07 bf c4 	ld  [ %fp + -60 ], %o0
 a1c:	d2 07 bf d0 	ld  [ %fp + -48 ], %o1
 a20:	d4 07 bf d8 	ld  [ %fp + -40 ], %o2
 a24:	96 10 00 02 	mov  %g2, %o3
 a28:	98 10 00 03 	mov  %g3, %o4
 a2c:	9a 10 00 01 	mov  %g1, %o5
 a30:	7f ff fd ed 	call  1e4 <FilterRegion>
 a34:	01 00 00 00 	nop 
 a38:	84 10 00 08 	mov  %o0, %g2
 a3c:	c2 07 bf b8 	ld  [ %fp + -72 ], %g1
 a40:	82 10 40 02 	or  %g1, %g2, %g1
 a44:	c2 27 bf b8 	st  %g1, [ %fp + -72 ]
 a48:	c2 07 bf a0 	ld  [ %fp + -96 ], %g1
 a4c:	c4 07 bf d8 	ld  [ %fp + -40 ], %g2
 a50:	82 00 40 02 	add  %g1, %g2, %g1
 a54:	c2 27 bf a0 	st  %g1, [ %fp + -96 ]
 a58:	c2 07 bf e4 	ld  [ %fp + -28 ], %g1
 a5c:	82 00 60 01 	inc  %g1
 a60:	c2 27 bf e4 	st  %g1, [ %fp + -28 ]
 a64:	10 bf ff 63 	b  7f0 <raac_TNSFilter+0x3c8>
 a68:	01 00 00 00 	nop 
 a6c:	c2 07 bf f0 	ld  [ %fp + -16 ], %g1
 a70:	85 28 60 02 	sll  %g1, 2, %g2
 a74:	c2 07 bf b4 	ld  [ %fp + -76 ], %g1
 a78:	82 00 40 02 	add  %g1, %g2, %g1
 a7c:	c2 27 bf b4 	st  %g1, [ %fp + -76 ]
 a80:	c2 07 bf f4 	ld  [ %fp + -12 ], %g1
 a84:	82 00 60 01 	inc  %g1
 a88:	c2 27 bf f4 	st  %g1, [ %fp + -12 ]
 a8c:	10 bf ff 49 	b  7b0 <raac_TNSFilter+0x388>
 a90:	01 00 00 00 	nop 
 a94:	d0 07 bf b8 	ld  [ %fp + -72 ], %o0
 a98:	40 00 00 49 	call  bbc <CLZ>
 a9c:	01 00 00 00 	nop 
 aa0:	82 10 00 08 	mov  %o0, %g1
 aa4:	82 00 7f ff 	add  %g1, -1, %g1
 aa8:	c2 27 bf c4 	st  %g1, [ %fp + -60 ]
 aac:	c4 07 bf 8c 	ld  [ %fp + -116 ], %g2
 ab0:	c2 07 a0 48 	ld  [ %fp + 0x48 ], %g1
 ab4:	83 28 60 02 	sll  %g1, 2, %g1
 ab8:	84 00 40 02 	add  %g1, %g2, %g2
 abc:	03 00 00 04 	sethi  %hi(0x1000), %g1
 ac0:	82 10 60 40 	or  %g1, 0x40, %g1	! 1040 <MADD64+0x37c>
 ac4:	82 00 80 01 	add  %g2, %g1, %g1
 ac8:	c4 00 40 00 	ld  [ %g1 ], %g2
 acc:	c2 07 bf c4 	ld  [ %fp + -60 ], %g1
 ad0:	80 a0 80 01 	cmp  %g2, %g1
 ad4:	04 80 00 0b 	ble  b00 <raac_TNSFilter+0x6d8>
 ad8:	01 00 00 00 	nop 
 adc:	c4 07 bf 8c 	ld  [ %fp + -116 ], %g2
 ae0:	c2 07 a0 48 	ld  [ %fp + 0x48 ], %g1
 ae4:	83 28 60 02 	sll  %g1, 2, %g1
 ae8:	84 00 40 02 	add  %g1, %g2, %g2
 aec:	03 00 00 04 	sethi  %hi(0x1000), %g1
 af0:	82 10 60 40 	or  %g1, 0x40, %g1	! 1040 <MADD64+0x37c>
 af4:	84 00 80 01 	add  %g2, %g1, %g2
 af8:	c2 07 bf c4 	ld  [ %fp + -60 ], %g1
 afc:	c2 20 80 00 	st  %g1, [ %g2 ]
 b00:	c0 27 bf 88 	clr  [ %fp + -120 ]
 b04:	f0 07 bf 88 	ld  [ %fp + -120 ], %i0
 b08:	81 c7 e0 08 	ret 
 b0c:	81 e8 00 00 	restore 

00000b10 <MULSHIFT32>:
 b10:	9d e3 bf 90 	save  %sp, -112, %sp
 b14:	f0 27 a0 44 	st  %i0, [ %fp + 0x44 ]
 b18:	f2 27 a0 48 	st  %i1, [ %fp + 0x48 ]
 b1c:	c2 07 a0 44 	ld  [ %fp + 0x44 ], %g1
 b20:	83 38 60 1f 	sra  %g1, 0x1f, %g1
 b24:	da 07 a0 44 	ld  [ %fp + 0x44 ], %o5
 b28:	98 10 00 01 	mov  %g1, %o4
 b2c:	c2 07 a0 48 	ld  [ %fp + 0x48 ], %g1
 b30:	83 38 60 1f 	sra  %g1, 0x1f, %g1
 b34:	c6 07 a0 48 	ld  [ %fp + 0x48 ], %g3
 b38:	84 10 00 01 	mov  %g1, %g2
 b3c:	90 10 00 0c 	mov  %o4, %o0
 b40:	92 10 00 0d 	mov  %o5, %o1
 b44:	94 10 00 02 	mov  %g2, %o2
 b48:	96 10 00 03 	mov  %g3, %o3
 b4c:	40 00 00 00 	call  b4c <MULSHIFT32+0x3c>
 b50:	01 00 00 00 	nop 
 b54:	98 10 00 08 	mov  %o0, %o4
 b58:	9a 10 00 09 	mov  %o1, %o5
 b5c:	87 3b 20 00 	sra  %o4, 0, %g3
 b60:	85 3b 20 1f 	sra  %o4, 0x1f, %g2
 b64:	c6 27 bf f4 	st  %g3, [ %fp + -12 ]
 b68:	c2 07 bf f4 	ld  [ %fp + -12 ], %g1
 b6c:	b0 10 00 01 	mov  %g1, %i0
 b70:	81 c7 e0 08 	ret 
 b74:	81 e8 00 00 	restore 

00000b78 <FASTABS>:
 b78:	9d e3 bf 90 	save  %sp, -112, %sp
 b7c:	f0 27 a0 44 	st  %i0, [ %fp + 0x44 ]
 b80:	c2 07 a0 44 	ld  [ %fp + 0x44 ], %g1
 b84:	83 38 60 1f 	sra  %g1, 0x1f, %g1
 b88:	c2 27 bf f4 	st  %g1, [ %fp + -12 ]
 b8c:	c4 07 a0 44 	ld  [ %fp + 0x44 ], %g2
 b90:	c2 07 bf f4 	ld  [ %fp + -12 ], %g1
 b94:	82 18 80 01 	xor  %g2, %g1, %g1
 b98:	c2 27 a0 44 	st  %g1, [ %fp + 0x44 ]
 b9c:	c4 07 a0 44 	ld  [ %fp + 0x44 ], %g2
 ba0:	c2 07 bf f4 	ld  [ %fp + -12 ], %g1
 ba4:	82 20 80 01 	sub  %g2, %g1, %g1
 ba8:	c2 27 a0 44 	st  %g1, [ %fp + 0x44 ]
 bac:	c2 07 a0 44 	ld  [ %fp + 0x44 ], %g1
 bb0:	b0 10 00 01 	mov  %g1, %i0
 bb4:	81 c7 e0 08 	ret 
 bb8:	81 e8 00 00 	restore 

00000bbc <CLZ>:
 bbc:	9d e3 bf 90 	save  %sp, -112, %sp
 bc0:	f0 27 a0 44 	st  %i0, [ %fp + 0x44 ]
 bc4:	c2 07 a0 44 	ld  [ %fp + 0x44 ], %g1
 bc8:	80 a0 60 00 	cmp  %g1, 0
 bcc:	12 80 00 06 	bne  be4 <CLZ+0x28>
 bd0:	01 00 00 00 	nop 
 bd4:	82 10 20 20 	mov  0x20, %g1	! 20 <DecodeLPCCoefs+0x18>
 bd8:	c2 27 bf f0 	st  %g1, [ %fp + -16 ]
 bdc:	10 80 00 37 	b  cb8 <CLZ+0xfc>
 be0:	01 00 00 00 	nop 
 be4:	82 10 20 01 	mov  1, %g1	! 1 <DecodeLPCCoefs-0x7>
 be8:	c2 27 bf f4 	st  %g1, [ %fp + -12 ]
 bec:	c2 07 a0 44 	ld  [ %fp + 0x44 ], %g1
 bf0:	83 30 60 10 	srl  %g1, 0x10, %g1
 bf4:	80 a0 60 00 	cmp  %g1, 0
 bf8:	12 80 00 08 	bne  c18 <CLZ+0x5c>
 bfc:	01 00 00 00 	nop 
 c00:	c2 07 bf f4 	ld  [ %fp + -12 ], %g1
 c04:	82 00 60 10 	add  %g1, 0x10, %g1
 c08:	c2 27 bf f4 	st  %g1, [ %fp + -12 ]
 c0c:	c2 07 a0 44 	ld  [ %fp + 0x44 ], %g1
 c10:	83 28 60 10 	sll  %g1, 0x10, %g1
 c14:	c2 27 a0 44 	st  %g1, [ %fp + 0x44 ]
 c18:	c2 07 a0 44 	ld  [ %fp + 0x44 ], %g1
 c1c:	83 30 60 18 	srl  %g1, 0x18, %g1
 c20:	80 a0 60 00 	cmp  %g1, 0
 c24:	12 80 00 08 	bne  c44 <CLZ+0x88>
 c28:	01 00 00 00 	nop 
 c2c:	c2 07 bf f4 	ld  [ %fp + -12 ], %g1
 c30:	82 00 60 08 	add  %g1, 8, %g1
 c34:	c2 27 bf f4 	st  %g1, [ %fp + -12 ]
 c38:	c2 07 a0 44 	ld  [ %fp + 0x44 ], %g1
 c3c:	83 28 60 08 	sll  %g1, 8, %g1
 c40:	c2 27 a0 44 	st  %g1, [ %fp + 0x44 ]
 c44:	c2 07 a0 44 	ld  [ %fp + 0x44 ], %g1
 c48:	83 30 60 1c 	srl  %g1, 0x1c, %g1
 c4c:	80 a0 60 00 	cmp  %g1, 0
 c50:	12 80 00 08 	bne  c70 <CLZ+0xb4>
 c54:	01 00 00 00 	nop 
 c58:	c2 07 bf f4 	ld  [ %fp + -12 ], %g1
 c5c:	82 00 60 04 	add  %g1, 4, %g1
 c60:	c2 27 bf f4 	st  %g1, [ %fp + -12 ]
 c64:	c2 07 a0 44 	ld  [ %fp + 0x44 ], %g1
 c68:	83 28 60 04 	sll  %g1, 4, %g1
 c6c:	c2 27 a0 44 	st  %g1, [ %fp + 0x44 ]
 c70:	c2 07 a0 44 	ld  [ %fp + 0x44 ], %g1
 c74:	83 30 60 1e 	srl  %g1, 0x1e, %g1
 c78:	80 a0 60 00 	cmp  %g1, 0
 c7c:	12 80 00 08 	bne  c9c <CLZ+0xe0>
 c80:	01 00 00 00 	nop 
 c84:	c2 07 bf f4 	ld  [ %fp + -12 ], %g1
 c88:	82 00 60 02 	add  %g1, 2, %g1
 c8c:	c2 27 bf f4 	st  %g1, [ %fp + -12 ]
 c90:	c2 07 a0 44 	ld  [ %fp + 0x44 ], %g1
 c94:	83 28 60 02 	sll  %g1, 2, %g1
 c98:	c2 27 a0 44 	st  %g1, [ %fp + 0x44 ]
 c9c:	c2 07 a0 44 	ld  [ %fp + 0x44 ], %g1
 ca0:	85 30 60 1f 	srl  %g1, 0x1f, %g2
 ca4:	c2 07 bf f4 	ld  [ %fp + -12 ], %g1
 ca8:	82 20 40 02 	sub  %g1, %g2, %g1
 cac:	c2 27 bf f4 	st  %g1, [ %fp + -12 ]
 cb0:	c2 07 bf f4 	ld  [ %fp + -12 ], %g1
 cb4:	c2 27 bf f0 	st  %g1, [ %fp + -16 ]
 cb8:	f0 07 bf f0 	ld  [ %fp + -16 ], %i0
 cbc:	81 c7 e0 08 	ret 
 cc0:	81 e8 00 00 	restore 

00000cc4 <MADD64>:
 cc4:	9d e3 bf 90 	save  %sp, -112, %sp
 cc8:	f0 3f bf f0 	std  %i0, [ %fp + -16 ]
 ccc:	f4 27 a0 4c 	st  %i2, [ %fp + 0x4c ]
 cd0:	f6 27 a0 50 	st  %i3, [ %fp + 0x50 ]
 cd4:	c2 07 a0 4c 	ld  [ %fp + 0x4c ], %g1
 cd8:	83 38 60 1f 	sra  %g1, 0x1f, %g1
 cdc:	da 07 a0 4c 	ld  [ %fp + 0x4c ], %o5
 ce0:	98 10 00 01 	mov  %g1, %o4
 ce4:	c2 07 a0 50 	ld  [ %fp + 0x50 ], %g1
 ce8:	83 38 60 1f 	sra  %g1, 0x1f, %g1
 cec:	c6 07 a0 50 	ld  [ %fp + 0x50 ], %g3
 cf0:	84 10 00 01 	mov  %g1, %g2
 cf4:	90 10 00 0c 	mov  %o4, %o0
 cf8:	92 10 00 0d 	mov  %o5, %o1
 cfc:	94 10 00 02 	mov  %g2, %o2
 d00:	96 10 00 03 	mov  %g3, %o3
 d04:	40 00 00 00 	call  d04 <MADD64+0x40>
 d08:	01 00 00 00 	nop 
 d0c:	98 10 00 08 	mov  %o0, %o4
 d10:	9a 10 00 09 	mov  %o1, %o5
 d14:	c4 1f bf f0 	ldd  [ %fp + -16 ], %g2
 d18:	86 80 c0 0d 	addcc  %g3, %o5, %g3
 d1c:	84 40 80 0c 	addx  %g2, %o4, %g2
 d20:	c4 3f bf f0 	std  %g2, [ %fp + -16 ]
 d24:	c4 1f bf f0 	ldd  [ %fp + -16 ], %g2
 d28:	b0 10 00 02 	mov  %g2, %i0
 d2c:	b2 10 00 03 	mov  %g3, %i1
 d30:	81 c7 e0 08 	ret 
 d34:	81 e8 00 00 	restore 
